libandroid-utils.so.0 libandroid-utils0 #MINVER#
 _Z24androidCreateThreadGetIDPFiPvES_PS_@Base 0.0.20
 _ZN13thread_data_t10trampolineEPKS_@Base 0.0.20
 _ZN7android10LogPrinter8printRawEPKc@Base 0.0.20
 _ZN7android10LogPrinter9printLineEPKc@Base 0.0.20
 _ZN7android10LogPrinterC1EPKc19android_LogPriorityS2_b@Base 0.0.20
 _ZN7android10LogPrinterC2EPKc19android_LogPriorityS2_b@Base 0.0.20
 _ZN7android10LogPrinterD0Ev@Base 0.0.20
 _ZN7android10LogPrinterD1Ev@Base 0.0.20
 _ZN7android10LogPrinterD2Ev@Base 0.0.20
 _ZN7android10VectorImpl11appendArrayEPKvm@Base 0.0.20
 _ZN7android10VectorImpl11setCapacityEm@Base 0.0.20
 _ZN7android10VectorImpl12appendVectorERKS0_@Base 0.0.20
 _ZN7android10VectorImpl13editArrayImplEv@Base 0.0.20
 _ZN7android10VectorImpl13finish_vectorEv@Base 0.0.20
 _ZN7android10VectorImpl13insertArrayAtEPKvmm@Base 0.0.20
 _ZN7android10VectorImpl13removeItemsAtEmm@Base 0.0.20
 _ZN7android10VectorImpl14insertVectorAtERKS0_m@Base 0.0.20
 _ZN7android10VectorImpl15release_storageEv@Base 0.0.20
 _ZN7android10VectorImpl16editItemLocationEm@Base 0.0.20
 _ZN7android10VectorImpl3addEPKv@Base 0.0.20
 _ZN7android10VectorImpl3addEv@Base 0.0.20
 _ZN7android10VectorImpl3popEv@Base 0.0.20
 _ZN7android10VectorImpl4pushEPKv@Base 0.0.20
 _ZN7android10VectorImpl4pushEv@Base 0.0.20
 _ZN7android10VectorImpl4sortEPFiPKvS2_E@Base 0.0.20
 _ZN7android10VectorImpl4sortEPFiPKvS2_PvES3_@Base 0.0.20
 _ZN7android10VectorImpl5_growEmm@Base 0.0.20
 _ZN7android10VectorImpl5clearEv@Base 0.0.20
 _ZN7android10VectorImpl6resizeEm@Base 0.0.20
 _ZN7android10VectorImpl7_shrinkEmm@Base 0.0.20
 _ZN7android10VectorImpl8insertAtEPKvmm@Base 0.0.20
 _ZN7android10VectorImpl8insertAtEmm@Base 0.0.20
 _ZN7android10VectorImpl9replaceAtEPKvm@Base 0.0.20
 _ZN7android10VectorImpl9replaceAtEm@Base 0.0.20
 _ZN7android10VectorImplC1ERKS0_@Base 0.0.20
 _ZN7android10VectorImplC1Emj@Base 0.0.20
 _ZN7android10VectorImplC2ERKS0_@Base 0.0.20
 _ZN7android10VectorImplC2Emj@Base 0.0.20
 _ZN7android10VectorImplD0Ev@Base 0.0.20
 _ZN7android10VectorImplD1Ev@Base 0.0.20
 _ZN7android10VectorImplD2Ev@Base 0.0.20
 _ZN7android10VectorImplaSERKS0_@Base 0.0.20
 _ZN7android11PropertyMap11addPropertyERKNS_7String8ES3_@Base 0.0.20
 _ZN7android11PropertyMap4loadERKNS_7String8EPPS0_@Base 0.0.20
 _ZN7android11PropertyMap5clearEv@Base 0.0.20
 _ZN7android11PropertyMap6Parser5parseEv@Base 0.0.20
 _ZN7android11PropertyMap6ParserC1EPS0_PNS_9TokenizerE@Base 0.0.20
 _ZN7android11PropertyMap6ParserC2EPS0_PNS_9TokenizerE@Base 0.0.20
 _ZN7android11PropertyMap6ParserD1Ev@Base 0.0.20
 _ZN7android11PropertyMap6ParserD2Ev@Base 0.0.20
 _ZN7android11PropertyMap6addAllEPKS0_@Base 0.0.20
 _ZN7android11PropertyMapC1Ev@Base 0.0.20
 _ZN7android11PropertyMapC2Ev@Base 0.0.20
 _ZN7android11PropertyMapD1Ev@Base 0.0.20
 _ZN7android11PropertyMapD2Ev@Base 0.0.20
 _ZN7android12NativeHandle6createEP13native_handleb@Base 0.0.20
 _ZN7android12NativeHandleC1EP13native_handleb@Base 0.0.20
 _ZN7android12NativeHandleC2EP13native_handleb@Base 0.0.20
 _ZN7android12NativeHandleD0Ev@Base 0.0.20
 _ZN7android12NativeHandleD1Ev@Base 0.0.20
 _ZN7android12NativeHandleD2Ev@Base 0.0.20
 _ZN7android12SharedBuffer5allocEm@Base 0.0.20
 _ZN7android12SharedBuffer7deallocEPKS0_@Base 0.0.20
 _ZN7android12SortedVectorINS_16key_value_pair_tINS_7String8ES2_EEED0Ev@Base 0.0.20
 _ZN7android12SortedVectorINS_16key_value_pair_tINS_7String8ES2_EEED1Ev@Base 0.0.20
 _ZN7android12SortedVectorINS_16key_value_pair_tINS_7String8ES2_EEED2Ev@Base 0.0.20
 _ZN7android12SortedVectorINS_16key_value_pair_tIiNS_16ProcessCallStack10ThreadInfoEEEED0Ev@Base 0.0.20
 _ZN7android12SortedVectorINS_16key_value_pair_tIiNS_16ProcessCallStack10ThreadInfoEEEED1Ev@Base 0.0.20
 _ZN7android12SortedVectorINS_16key_value_pair_tIiNS_16ProcessCallStack10ThreadInfoEEEED2Ev@Base 0.0.20
 _ZN7android12SortedVectorINS_16key_value_pair_tIiNS_6Looper7RequestEEEED0Ev@Base 0.0.20
 _ZN7android12SortedVectorINS_16key_value_pair_tIiNS_6Looper7RequestEEEED1Ev@Base 0.0.20
 _ZN7android12SortedVectorINS_16key_value_pair_tIiNS_6Looper7RequestEEEED2Ev@Base 0.0.20
 _ZN7android12SortedVectorINS_9BlobCache10CacheEntryEED0Ev@Base 0.0.20
 _ZN7android12SortedVectorINS_9BlobCache10CacheEntryEED1Ev@Base 0.0.20
 _ZN7android12SortedVectorINS_9BlobCache10CacheEntryEED2Ev@Base 0.0.20
 _ZN7android12uptimeMillisEv@Base 0.0.20
 _ZN7android13PrefixPrinter9printLineEPKc@Base 0.0.20
 _ZN7android13PrefixPrinterC1ERNS_7PrinterEPKc@Base 0.0.20
 _ZN7android13PrefixPrinterC2ERNS_7PrinterEPKc@Base 0.0.20
 _ZN7android13PrefixPrinterD0Ev@Base 0.0.20
 _ZN7android13PrefixPrinterD1Ev@Base 0.0.20
 _ZN7android13PrefixPrinterD2Ev@Base 0.0.20
 _ZN7android14String8Printer9printLineEPKc@Base 0.0.20
 _ZN7android14String8PrinterC1EPNS_7String8EPKc@Base 0.0.20
 _ZN7android14String8PrinterC2EPNS_7String8EPKc@Base 0.0.20
 _ZN7android14String8PrinterD0Ev@Base 0.0.20
 _ZN7android14String8PrinterD1Ev@Base 0.0.20
 _ZN7android14String8PrinterD2Ev@Base 0.0.20
 _ZN7android15LinearTransform6reduceEPiPj@Base 0.0.20
 _ZN7android15LinearTransform6reduceIjEEvPT_S3_@Base 0.0.20
 _ZN7android15LinearTransform6reduceImEEvPT_S3_@Base 0.0.20
 _ZN7android15elapsedRealtimeEv@Base 0.0.20
 _ZN7android16ProcessCallStack5clearEv@Base 0.0.20
 _ZN7android16ProcessCallStack6updateEv@Base 0.0.20
 _ZN7android16ProcessCallStackC1ERKS0_@Base 0.0.20
 _ZN7android16ProcessCallStackC1Ev@Base 0.0.20
 _ZN7android16ProcessCallStackC2ERKS0_@Base 0.0.20
 _ZN7android16ProcessCallStackC2Ev@Base 0.0.20
 _ZN7android16ProcessCallStackD1Ev@Base 0.0.20
 _ZN7android16ProcessCallStackD2Ev@Base 0.0.20
 _ZN7android16SortedVectorImpl3addEPKv@Base 0.0.20
 _ZN7android16SortedVectorImpl5mergeERKNS_10VectorImplE@Base 0.0.20
 _ZN7android16SortedVectorImpl5mergeERKS0_@Base 0.0.20
 _ZN7android16SortedVectorImpl6removeEPKv@Base 0.0.20
 _ZN7android16SortedVectorImplC1ERKNS_10VectorImplE@Base 0.0.20
 _ZN7android16SortedVectorImplC1Emj@Base 0.0.20
 _ZN7android16SortedVectorImplC2ERKNS_10VectorImplE@Base 0.0.20
 _ZN7android16SortedVectorImplC2Emj@Base 0.0.20
 _ZN7android16SortedVectorImplD0Ev@Base 0.0.20
 _ZN7android16SortedVectorImplD1Ev@Base 0.0.20
 _ZN7android16SortedVectorImplD2Ev@Base 0.0.20
 _ZN7android16SortedVectorImplaSERKS0_@Base 0.0.20
 _ZN7android17JenkinsHashWhitenEj@Base 0.0.20
 _ZN7android17terminate_string8Ev@Base 0.0.20
 _ZN7android18WeakMessageHandler13handleMessageERKNS_7MessageE@Base 0.0.20
 _ZN7android18WeakMessageHandlerC1ERKNS_2wpINS_14MessageHandlerEEE@Base 0.0.20
 _ZN7android18WeakMessageHandlerC2ERKNS_2wpINS_14MessageHandlerEEE@Base 0.0.20
 _ZN7android18WeakMessageHandlerD0Ev@Base 0.0.20
 _ZN7android18WeakMessageHandlerD1Ev@Base 0.0.20
 _ZN7android18WeakMessageHandlerD2Ev@Base 0.0.20
 _ZN7android18initialize_string8Ev@Base 0.0.20
 _ZN7android18terminate_string16Ev@Base 0.0.20
 _ZN7android19JenkinsHashMixBytesEjPKhm@Base 0.0.20
 _ZN7android19elapsedRealtimeNanoEv@Base 0.0.20
 _ZN7android19initialize_string16Ev@Base 0.0.20
 _ZN7android20JenkinsHashMixShortsEjPKtm@Base 0.0.20
 _ZN7android20LibUtilsFirstStaticsD1Ev@Base 0.0.20
 _ZN7android20LibUtilsFirstStaticsD2Ev@Base 0.0.20
 _ZN7android20SimpleLooperCallback11handleEventEiiPv@Base 0.0.20
 _ZN7android20SimpleLooperCallbackC1EPFiiiPvE@Base 0.0.20
 _ZN7android20SimpleLooperCallbackC2EPFiiiPvE@Base 0.0.20
 _ZN7android20SimpleLooperCallbackD0Ev@Base 0.0.20
 _ZN7android20SimpleLooperCallbackD1Ev@Base 0.0.20
 _ZN7android20SimpleLooperCallbackD2Ev@Base 0.0.20
 _ZN7android21report_sysprop_changeEv@Base 0.0.20
 _ZN7android23gDarwinIsReallyAnnoyingE@Base 0.0.20
 _ZN7android25gDarwinCantLoadAllObjectsE@Base 0.0.20
 _ZN7android27add_sysprop_change_callbackEPFvvEi@Base 0.0.20
 _ZN7android2spINS_14LooperCallbackEEaSERKS2_@Base 0.0.20
 _ZN7android2spINS_9BlobCache4BlobEEaSERKS3_@Base 0.0.20
 _ZN7android6Looper10initTLSKeyEv@Base 0.0.20
 _ZN7android6Looper11sendMessageERKNS_2spINS_14MessageHandlerEEERKNS_7MessageE@Base 0.0.20
 _ZN7android6Looper12getForThreadEv@Base 0.0.20
 _ZN7android6Looper12pushResponseEiRKNS0_7RequestE@Base 0.0.20
 _ZN7android6Looper12setForThreadERKNS_2spIS0_EE@Base 0.0.20
 _ZN7android6Looper14removeMessagesERKNS_2spINS_14MessageHandlerEEE@Base 0.0.20
 _ZN7android6Looper14removeMessagesERKNS_2spINS_14MessageHandlerEEEi@Base 0.0.20
 _ZN7android6Looper16threadDestructorEPv@Base 0.0.20
 _ZN7android6Looper17sendMessageAtTimeElRKNS_2spINS_14MessageHandlerEEERKNS_7MessageE@Base 0.0.20
 _ZN7android6Looper18rebuildEpollLockedEv@Base 0.0.20
 _ZN7android6Looper18sendMessageDelayedElRKNS_2spINS_14MessageHandlerEEERKNS_7MessageE@Base 0.0.20
 _ZN7android6Looper26scheduleEpollRebuildLockedEv@Base 0.0.20
 _ZN7android6Looper4wakeEv@Base 0.0.20
 _ZN7android6Looper5addFdEiiiPFiiiPvES1_@Base 0.0.20
 _ZN7android6Looper5addFdEiiiRKNS_2spINS_14LooperCallbackEEEPv@Base 0.0.20
 _ZN7android6Looper6awokenEv@Base 0.0.20
 _ZN7android6Looper7pollAllEiPiS1_PPv@Base 0.0.20
 _ZN7android6Looper7prepareEi@Base 0.0.20
 _ZN7android6Looper8pollOnceEiPiS1_PPv@Base 0.0.20
 _ZN7android6Looper8removeFdEi@Base 0.0.20
 _ZN7android6Looper8removeFdEii@Base 0.0.20
 _ZN7android6Looper9pollInnerEi@Base 0.0.20
 _ZN7android6LooperC1Eb@Base 0.0.20
 _ZN7android6LooperC2Eb@Base 0.0.20
 _ZN7android6LooperD0Ev@Base 0.0.20
 _ZN7android6LooperD1Ev@Base 0.0.20
 _ZN7android6LooperD2Ev@Base 0.0.20
 _ZN7android6Thread10readyToRunEv@Base 0.0.20
 _ZN7android6Thread11_threadLoopEPv@Base 0.0.20
 _ZN7android6Thread11requestExitEv@Base 0.0.20
 _ZN7android6Thread18requestExitAndWaitEv@Base 0.0.20
 _ZN7android6Thread3runEPKcim@Base 0.0.20
 _ZN7android6Thread4joinEv@Base 0.0.20
 _ZN7android6ThreadC1Eb@Base 0.0.20
 _ZN7android6ThreadC2Eb@Base 0.0.20
 _ZN7android6ThreadD0Ev@Base 0.0.20
 _ZN7android6ThreadD1Ev@Base 0.0.20
 _ZN7android6ThreadD2Ev@Base 0.0.20
 _ZN7android6VectorINS_28sysprop_change_callback_infoEED0Ev@Base 0.0.20
 _ZN7android6VectorINS_28sysprop_change_callback_infoEED1Ev@Base 0.0.20
 _ZN7android6VectorINS_28sysprop_change_callback_infoEED2Ev@Base 0.0.20
 _ZN7android6VectorINS_6Looper15MessageEnvelopeEED0Ev@Base 0.0.20
 _ZN7android6VectorINS_6Looper15MessageEnvelopeEED1Ev@Base 0.0.20
 _ZN7android6VectorINS_6Looper15MessageEnvelopeEED2Ev@Base 0.0.20
 _ZN7android6VectorINS_6Looper8ResponseEED0Ev@Base 0.0.20
 _ZN7android6VectorINS_6Looper8ResponseEED1Ev@Base 0.0.20
 _ZN7android6VectorINS_6Looper8ResponseEED2Ev@Base 0.0.20
 _ZN7android6VectorINS_7String8EED0Ev@Base 0.0.20
 _ZN7android6VectorINS_7String8EED1Ev@Base 0.0.20
 _ZN7android6VectorINS_7String8EED2Ev@Base 0.0.20
 _ZN7android7FileMap6adviseENS0_9MapAdviceE@Base 0.0.20
 _ZN7android7FileMap6createEPKcilmb@Base 0.0.20
 _ZN7android7FileMap9mPageSizeE@Base 0.0.20
 _ZN7android7FileMapC1EOS0_@Base 0.0.20
 _ZN7android7FileMapC1Ev@Base 0.0.20
 _ZN7android7FileMapC2EOS0_@Base 0.0.20
 _ZN7android7FileMapC2Ev@Base 0.0.20
 _ZN7android7FileMapD1Ev@Base 0.0.20
 _ZN7android7FileMapD2Ev@Base 0.0.20
 _ZN7android7FileMapaSEOS0_@Base 0.0.20
 _ZN7android7Printer15printFormatLineEPKcz@Base 0.0.20
 _ZN7android7PrinterC1Ev@Base 0.0.20
 _ZN7android7PrinterC2Ev@Base 0.0.20
 _ZN7android7PrinterD0Ev@Base 0.0.20
 _ZN7android7PrinterD1Ev@Base 0.0.20
 _ZN7android7PrinterD2Ev@Base 0.0.20
 _ZN7android7RefBase10onFirstRefEv@Base 0.0.20
 _ZN7android7RefBase10renameRefsEmRKNS_16ReferenceRenamerE@Base 0.0.20
 _ZN7android7RefBase11renameRefIdEPNS0_12weakref_typeEPKvS4_@Base 0.0.20
 _ZN7android7RefBase11renameRefIdEPS0_PKvS3_@Base 0.0.20
 _ZN7android7RefBase12weakref_type14attemptIncWeakEPKv@Base 0.0.20
 _ZN7android7RefBase12weakref_type16attemptIncStrongEPKv@Base 0.0.20
 _ZN7android7RefBase12weakref_type7decWeakEPKv@Base 0.0.20
 _ZN7android7RefBase12weakref_type7incWeakEPKv@Base 0.0.20
 _ZN7android7RefBase12weakref_type7trackMeEbb@Base 0.0.20
 _ZN7android7RefBase13onLastWeakRefEPKv@Base 0.0.20
 _ZN7android7RefBase15onLastStrongRefEPKv@Base 0.0.20
 _ZN7android7RefBase20extendObjectLifetimeEi@Base 0.0.20
 _ZN7android7RefBase20onIncStrongAttemptedEjPKv@Base 0.0.20
 _ZN7android7RefBaseC1Ev@Base 0.0.20
 _ZN7android7RefBaseC2Ev@Base 0.0.20
 _ZN7android7RefBaseD0Ev@Base 0.0.20
 _ZN7android7RefBaseD1Ev@Base 0.0.20
 _ZN7android7RefBaseD2Ev@Base 0.0.20
 _ZN7android7String810appendPathEPKc@Base 0.0.20
 _ZN7android7String810lockBufferEm@Base 0.0.20
 _ZN7android7String811real_appendEPKcm@Base 0.0.20
 _ZN7android7String811setPathNameEPKc@Base 0.0.20
 _ZN7android7String811setPathNameEPKcm@Base 0.0.20
 _ZN7android7String812appendFormatEPKcz@Base 0.0.20
 _ZN7android7String812unlockBufferEm@Base 0.0.20
 _ZN7android7String812unlockBufferEv@Base 0.0.20
 _ZN7android7String813appendFormatVEPKcP13__va_list_tag@Base 0.0.20
 _ZN7android7String816convertToResPathEv@Base 0.0.20
 _ZN7android7String85clearEv@Base 0.0.20
 _ZN7android7String85setToEPKDim@Base 0.0.20
 _ZN7android7String85setToEPKDsm@Base 0.0.20
 _ZN7android7String85setToEPKc@Base 0.0.20
 _ZN7android7String85setToEPKcm@Base 0.0.20
 _ZN7android7String85setToERKS0_@Base 0.0.20
 _ZN7android7String86appendEPKc@Base 0.0.20
 _ZN7android7String86appendEPKcm@Base 0.0.20
 _ZN7android7String86appendERKS0_@Base 0.0.20
 _ZN7android7String86formatEPKcz@Base 0.0.20
 _ZN7android7String87formatVEPKcP13__va_list_tag@Base 0.0.20
 _ZN7android7String87toLowerEmm@Base 0.0.20
 _ZN7android7String87toLowerEv@Base 0.0.20
 _ZN7android7String87toUpperEmm@Base 0.0.20
 _ZN7android7String87toUpperEv@Base 0.0.20
 _ZN7android7String89removeAllEPKc@Base 0.0.20
 _ZN7android7String8C1ENS0_13StaticLinkageE@Base 0.0.20
 _ZN7android7String8C1EPKDi@Base 0.0.20
 _ZN7android7String8C1EPKDim@Base 0.0.20
 _ZN7android7String8C1EPKDs@Base 0.0.20
 _ZN7android7String8C1EPKDsm@Base 0.0.20
 _ZN7android7String8C1EPKc@Base 0.0.20
 _ZN7android7String8C1EPKcm@Base 0.0.20
 _ZN7android7String8C1ERKNS_8String16E@Base 0.0.20
 _ZN7android7String8C1ERKS0_@Base 0.0.20
 _ZN7android7String8C1Ev@Base 0.0.20
 _ZN7android7String8C2ENS0_13StaticLinkageE@Base 0.0.20
 _ZN7android7String8C2EPKDi@Base 0.0.20
 _ZN7android7String8C2EPKDim@Base 0.0.20
 _ZN7android7String8C2EPKDs@Base 0.0.20
 _ZN7android7String8C2EPKDsm@Base 0.0.20
 _ZN7android7String8C2EPKc@Base 0.0.20
 _ZN7android7String8C2EPKcm@Base 0.0.20
 _ZN7android7String8C2ERKNS_8String16E@Base 0.0.20
 _ZN7android7String8C2ERKS0_@Base 0.0.20
 _ZN7android7String8C2Ev@Base 0.0.20
 _ZN7android7String8D1Ev@Base 0.0.20
 _ZN7android7String8D2Ev@Base 0.0.20
 _ZN7android8String1610replaceAllEDsDs@Base 0.0.20
 _ZN7android8String165setToEPKDs@Base 0.0.20
 _ZN7android8String165setToEPKDsm@Base 0.0.20
 _ZN7android8String165setToERKS0_@Base 0.0.20
 _ZN7android8String165setToERKS0_mm@Base 0.0.20
 _ZN7android8String166appendEPKDsm@Base 0.0.20
 _ZN7android8String166appendERKS0_@Base 0.0.20
 _ZN7android8String166insertEmPKDs@Base 0.0.20
 _ZN7android8String166insertEmPKDsm@Base 0.0.20
 _ZN7android8String166removeEmm@Base 0.0.20
 _ZN7android8String169makeLowerEv@Base 0.0.20
 _ZN7android8String16C1ENS0_13StaticLinkageE@Base 0.0.20
 _ZN7android8String16C1EPKDs@Base 0.0.20
 _ZN7android8String16C1EPKDsm@Base 0.0.20
 _ZN7android8String16C1EPKc@Base 0.0.20
 _ZN7android8String16C1EPKcm@Base 0.0.20
 _ZN7android8String16C1ERKNS_7String8E@Base 0.0.20
 _ZN7android8String16C1ERKS0_@Base 0.0.20
 _ZN7android8String16C1ERKS0_mm@Base 0.0.20
 _ZN7android8String16C1Ev@Base 0.0.20
 _ZN7android8String16C2ENS0_13StaticLinkageE@Base 0.0.20
 _ZN7android8String16C2EPKDs@Base 0.0.20
 _ZN7android8String16C2EPKDsm@Base 0.0.20
 _ZN7android8String16C2EPKc@Base 0.0.20
 _ZN7android8String16C2EPKcm@Base 0.0.20
 _ZN7android8String16C2ERKNS_7String8E@Base 0.0.20
 _ZN7android8String16C2ERKS0_@Base 0.0.20
 _ZN7android8String16C2ERKS0_mm@Base 0.0.20
 _ZN7android8String16C2Ev@Base 0.0.20
 _ZN7android8String16D1Ev@Base 0.0.20
 _ZN7android8String16D2Ev@Base 0.0.20
 _ZN7android9BlobCache10CacheEntry8setValueERKNS_2spINS0_4BlobEEE@Base 0.0.20
 _ZN7android9BlobCache10CacheEntryC1ERKNS_2spINS0_4BlobEEES6_@Base 0.0.20
 _ZN7android9BlobCache10CacheEntryC1ERKS1_@Base 0.0.20
 _ZN7android9BlobCache10CacheEntryC1Ev@Base 0.0.20
 _ZN7android9BlobCache10CacheEntryC2ERKNS_2spINS0_4BlobEEES6_@Base 0.0.20
 _ZN7android9BlobCache10CacheEntryC2ERKS1_@Base 0.0.20
 _ZN7android9BlobCache10CacheEntryC2Ev@Base 0.0.20
 _ZN7android9BlobCache10CacheEntryD1Ev@Base 0.0.20
 _ZN7android9BlobCache10CacheEntryD2Ev@Base 0.0.20
 _ZN7android9BlobCache10CacheEntryaSERKS1_@Base 0.0.20
 _ZN7android9BlobCache11blob_randomEv@Base 0.0.20
 _ZN7android9BlobCache3getEPKvmPvm@Base 0.0.20
 _ZN7android9BlobCache3setEPKvmS2_m@Base 0.0.20
 _ZN7android9BlobCache4BlobC1EPKvmb@Base 0.0.20
 _ZN7android9BlobCache4BlobC2EPKvmb@Base 0.0.20
 _ZN7android9BlobCache4BlobD0Ev@Base 0.0.20
 _ZN7android9BlobCache4BlobD1Ev@Base 0.0.20
 _ZN7android9BlobCache4BlobD2Ev@Base 0.0.20
 _ZN7android9BlobCache5cleanEv@Base 0.0.20
 _ZN7android9BlobCache9unflattenEPKvm@Base 0.0.20
 _ZN7android9BlobCacheC1Emmm@Base 0.0.20
 _ZN7android9BlobCacheC2Emmm@Base 0.0.20
 _ZN7android9BlobCacheD0Ev@Base 0.0.20
 _ZN7android9BlobCacheD1Ev@Base 0.0.20
 _ZN7android9BlobCacheD2Ev@Base 0.0.20
 _ZN7android9CallStack6updateEii@Base 0.0.20
 _ZN7android9CallStackC1EPKci@Base 0.0.20
 _ZN7android9CallStackC1Ev@Base 0.0.20
 _ZN7android9CallStackC2EPKci@Base 0.0.20
 _ZN7android9CallStackC2Ev@Base 0.0.20
 _ZN7android9CallStackD1Ev@Base 0.0.20
 _ZN7android9CallStackD2Ev@Base 0.0.20
 _ZN7android9FdPrinter9printLineEPKc@Base 0.0.20
 _ZN7android9FdPrinterC1EijPKc@Base 0.0.20
 _ZN7android9FdPrinterC2EijPKc@Base 0.0.20
 _ZN7android9FdPrinterD0Ev@Base 0.0.20
 _ZN7android9FdPrinterD1Ev@Base 0.0.20
 _ZN7android9FdPrinterD2Ev@Base 0.0.20
 _ZN7android9LogIfSlowC1EPKc19android_LogPriorityiS2_@Base 0.0.20
 _ZN7android9LogIfSlowC2EPKc19android_LogPriorityiS2_@Base 0.0.20
 _ZN7android9LogIfSlowD1Ev@Base 0.0.20
 _ZN7android9LogIfSlowD2Ev@Base 0.0.20
 _ZN7android9StopWatch3lapEv@Base 0.0.20
 _ZN7android9StopWatch5resetEv@Base 0.0.20
 _ZN7android9StopWatchC1EPKcij@Base 0.0.20
 _ZN7android9StopWatchC2EPKcij@Base 0.0.20
 _ZN7android9StopWatchD1Ev@Base 0.0.20
 _ZN7android9StopWatchD2Ev@Base 0.0.20
 _ZN7android9Tokenizer12fromContentsERKNS_7String8EPKcPPS0_@Base 0.0.20
 _ZN7android9Tokenizer14skipDelimitersEPKc@Base 0.0.20
 _ZN7android9Tokenizer4openERKNS_7String8EPPS0_@Base 0.0.20
 _ZN7android9Tokenizer8nextLineEv@Base 0.0.20
 _ZN7android9Tokenizer9nextTokenEPKc@Base 0.0.20
 _ZN7android9TokenizerC1ERKNS_7String8EPNS_7FileMapEPcbm@Base 0.0.20
 _ZN7android9TokenizerC2ERKNS_7String8EPNS_7FileMapEPcbm@Base 0.0.20
 _ZN7android9TokenizerD1Ev@Base 0.0.20
 _ZN7android9TokenizerD2Ev@Base 0.0.20
 _ZNK7android10VectorImpl12itemLocationEm@Base 0.0.20
 _ZNK7android10VectorImpl8capacityEv@Base 0.0.20
 _ZNK7android10VectorImpl8itemSizeEv@Base 0.0.20
 _ZNK7android11PropertyMap11hasPropertyERKNS_7String8E@Base 0.0.20
 _ZNK7android11PropertyMap14tryGetPropertyERKNS_7String8ERS1_@Base 0.0.20
 _ZNK7android11PropertyMap14tryGetPropertyERKNS_7String8ERb@Base 0.0.20
 _ZNK7android11PropertyMap14tryGetPropertyERKNS_7String8ERf@Base 0.0.20
 _ZNK7android11PropertyMap14tryGetPropertyERKNS_7String8ERi@Base 0.0.20
 _ZNK7android12SharedBuffer10editResizeEm@Base 0.0.20
 _ZNK7android12SharedBuffer11attemptEditEv@Base 0.0.20
 _ZNK7android12SharedBuffer4editEv@Base 0.0.20
 _ZNK7android12SharedBuffer5resetEm@Base 0.0.20
 _ZNK7android12SharedBuffer7acquireEv@Base 0.0.20
 _ZNK7android12SharedBuffer7releaseEj@Base 0.0.20
 _ZNK7android12SortedVectorINS_16key_value_pair_tINS_7String8ES2_EEE10do_compareEPKvS6_@Base 0.0.20
 _ZNK7android12SortedVectorINS_16key_value_pair_tINS_7String8ES2_EEE10do_destroyEPvm@Base 0.0.20
 _ZNK7android12SortedVectorINS_16key_value_pair_tINS_7String8ES2_EEE12do_constructEPvm@Base 0.0.20
 _ZNK7android12SortedVectorINS_16key_value_pair_tINS_7String8ES2_EEE15do_move_forwardEPvPKvm@Base 0.0.20
 _ZNK7android12SortedVectorINS_16key_value_pair_tINS_7String8ES2_EEE16do_move_backwardEPvPKvm@Base 0.0.20
 _ZNK7android12SortedVectorINS_16key_value_pair_tINS_7String8ES2_EEE7do_copyEPvPKvm@Base 0.0.20
 _ZNK7android12SortedVectorINS_16key_value_pair_tINS_7String8ES2_EEE8do_splatEPvPKvm@Base 0.0.20
 _ZNK7android12SortedVectorINS_16key_value_pair_tIiNS_16ProcessCallStack10ThreadInfoEEEE10do_compareEPKvS7_@Base 0.0.20
 _ZNK7android12SortedVectorINS_16key_value_pair_tIiNS_16ProcessCallStack10ThreadInfoEEEE10do_destroyEPvm@Base 0.0.20
 _ZNK7android12SortedVectorINS_16key_value_pair_tIiNS_16ProcessCallStack10ThreadInfoEEEE12do_constructEPvm@Base 0.0.20
 _ZNK7android12SortedVectorINS_16key_value_pair_tIiNS_16ProcessCallStack10ThreadInfoEEEE15do_move_forwardEPvPKvm@Base 0.0.20
 _ZNK7android12SortedVectorINS_16key_value_pair_tIiNS_16ProcessCallStack10ThreadInfoEEEE16do_move_backwardEPvPKvm@Base 0.0.20
 _ZNK7android12SortedVectorINS_16key_value_pair_tIiNS_16ProcessCallStack10ThreadInfoEEEE7do_copyEPvPKvm@Base 0.0.20
 _ZNK7android12SortedVectorINS_16key_value_pair_tIiNS_16ProcessCallStack10ThreadInfoEEEE8do_splatEPvPKvm@Base 0.0.20
 _ZNK7android12SortedVectorINS_16key_value_pair_tIiNS_6Looper7RequestEEEE10do_compareEPKvS7_@Base 0.0.20
 _ZNK7android12SortedVectorINS_16key_value_pair_tIiNS_6Looper7RequestEEEE10do_destroyEPvm@Base 0.0.20
 _ZNK7android12SortedVectorINS_16key_value_pair_tIiNS_6Looper7RequestEEEE12do_constructEPvm@Base 0.0.20
 _ZNK7android12SortedVectorINS_16key_value_pair_tIiNS_6Looper7RequestEEEE15do_move_forwardEPvPKvm@Base 0.0.20
 _ZNK7android12SortedVectorINS_16key_value_pair_tIiNS_6Looper7RequestEEEE16do_move_backwardEPvPKvm@Base 0.0.20
 _ZNK7android12SortedVectorINS_16key_value_pair_tIiNS_6Looper7RequestEEEE7do_copyEPvPKvm@Base 0.0.20
 _ZNK7android12SortedVectorINS_16key_value_pair_tIiNS_6Looper7RequestEEEE8do_splatEPvPKvm@Base 0.0.20
 _ZNK7android12SortedVectorINS_9BlobCache10CacheEntryEE10do_compareEPKvS5_@Base 0.0.20
 _ZNK7android12SortedVectorINS_9BlobCache10CacheEntryEE10do_destroyEPvm@Base 0.0.20
 _ZNK7android12SortedVectorINS_9BlobCache10CacheEntryEE12do_constructEPvm@Base 0.0.20
 _ZNK7android12SortedVectorINS_9BlobCache10CacheEntryEE15do_move_forwardEPvPKvm@Base 0.0.20
 _ZNK7android12SortedVectorINS_9BlobCache10CacheEntryEE16do_move_backwardEPvPKvm@Base 0.0.20
 _ZNK7android12SortedVectorINS_9BlobCache10CacheEntryEE7do_copyEPvPKvm@Base 0.0.20
 _ZNK7android12SortedVectorINS_9BlobCache10CacheEntryEE8do_splatEPvPKvm@Base 0.0.20
 _ZNK7android15LinearTransform18doForwardTransformElPl@Base 0.0.20
 _ZNK7android15LinearTransform18doReverseTransformElPl@Base 0.0.20
 _ZNK7android16ProcessCallStack13printInternalERNS_7PrinterES2_@Base 0.0.20
 _ZNK7android16ProcessCallStack3logEPKc19android_LogPriorityS2_@Base 0.0.20
 _ZNK7android16ProcessCallStack4dumpEiiPKc@Base 0.0.20
 _ZNK7android16ProcessCallStack4sizeEv@Base 0.0.20
 _ZNK7android16ProcessCallStack5printERNS_7PrinterE@Base 0.0.20
 _ZNK7android16ProcessCallStack8toStringEPKc@Base 0.0.20
 _ZNK7android16SortedVectorImpl13_indexOrderOfEPKvPm@Base 0.0.20
 _ZNK7android16SortedVectorImpl7indexOfEPKv@Base 0.0.20
 _ZNK7android16SortedVectorImpl7orderOfEPKv@Base 0.0.20
 _ZNK7android6Looper20getAllowNonCallbacksEv@Base 0.0.20
 _ZNK7android6Looper7Request13initEventItemEP11epoll_event@Base 0.0.20
 _ZNK7android6Looper9isPollingEv@Base 0.0.20
 _ZNK7android6Thread11exitPendingEv@Base 0.0.20
 _ZNK7android6Thread6getTidEv@Base 0.0.20
 _ZNK7android6Thread9isRunningEv@Base 0.0.20
 _ZNK7android6VectorINS_28sysprop_change_callback_infoEE10do_destroyEPvm@Base 0.0.20
 _ZNK7android6VectorINS_28sysprop_change_callback_infoEE12do_constructEPvm@Base 0.0.20
 _ZNK7android6VectorINS_28sysprop_change_callback_infoEE15do_move_forwardEPvPKvm@Base 0.0.20
 _ZNK7android6VectorINS_28sysprop_change_callback_infoEE16do_move_backwardEPvPKvm@Base 0.0.20
 _ZNK7android6VectorINS_28sysprop_change_callback_infoEE7do_copyEPvPKvm@Base 0.0.20
 _ZNK7android6VectorINS_28sysprop_change_callback_infoEE8do_splatEPvPKvm@Base 0.0.20
 _ZNK7android6VectorINS_6Looper15MessageEnvelopeEE10do_destroyEPvm@Base 0.0.20
 _ZNK7android6VectorINS_6Looper15MessageEnvelopeEE12do_constructEPvm@Base 0.0.20
 _ZNK7android6VectorINS_6Looper15MessageEnvelopeEE15do_move_forwardEPvPKvm@Base 0.0.20
 _ZNK7android6VectorINS_6Looper15MessageEnvelopeEE16do_move_backwardEPvPKvm@Base 0.0.20
 _ZNK7android6VectorINS_6Looper15MessageEnvelopeEE7do_copyEPvPKvm@Base 0.0.20
 _ZNK7android6VectorINS_6Looper15MessageEnvelopeEE8do_splatEPvPKvm@Base 0.0.20
 _ZNK7android6VectorINS_6Looper8ResponseEE10do_destroyEPvm@Base 0.0.20
 _ZNK7android6VectorINS_6Looper8ResponseEE12do_constructEPvm@Base 0.0.20
 _ZNK7android6VectorINS_6Looper8ResponseEE15do_move_forwardEPvPKvm@Base 0.0.20
 _ZNK7android6VectorINS_6Looper8ResponseEE16do_move_backwardEPvPKvm@Base 0.0.20
 _ZNK7android6VectorINS_6Looper8ResponseEE7do_copyEPvPKvm@Base 0.0.20
 _ZNK7android6VectorINS_6Looper8ResponseEE8do_splatEPvPKvm@Base 0.0.20
 _ZNK7android6VectorINS_7String8EE10do_destroyEPvm@Base 0.0.20
 _ZNK7android6VectorINS_7String8EE12do_constructEPvm@Base 0.0.20
 _ZNK7android6VectorINS_7String8EE15do_move_forwardEPvPKvm@Base 0.0.20
 _ZNK7android6VectorINS_7String8EE16do_move_backwardEPvPKvm@Base 0.0.20
 _ZNK7android6VectorINS_7String8EE7do_copyEPvPKvm@Base 0.0.20
 _ZNK7android6VectorINS_7String8EE8do_splatEPvPKvm@Base 0.0.20
 _ZNK7android7RefBase10createWeakEPKv@Base 0.0.20
 _ZNK7android7RefBase11getWeakRefsEv@Base 0.0.20
 _ZNK7android7RefBase12weakref_type12getWeakCountEv@Base 0.0.20
 _ZNK7android7RefBase12weakref_type7refBaseEv@Base 0.0.20
 _ZNK7android7RefBase12weakref_type9printRefsEv@Base 0.0.20
 _ZNK7android7RefBase14forceIncStrongEPKv@Base 0.0.20
 _ZNK7android7RefBase14getStrongCountEv@Base 0.0.20
 _ZNK7android7RefBase9decStrongEPKv@Base 0.0.20
 _ZNK7android7RefBase9incStrongEPKv@Base 0.0.20
 _ZNK7android7String810getPathDirEv@Base 0.0.20
 _ZNK7android7String810getUtf32AtEmPm@Base 0.0.20
 _ZNK7android7String811getBasePathEv@Base 0.0.20
 _ZNK7android7String811getPathLeafEv@Base 0.0.20
 _ZNK7android7String814find_extensionEv@Base 0.0.20
 _ZNK7android7String814getUtf32LengthEv@Base 0.0.20
 _ZNK7android7String816getPathExtensionEv@Base 0.0.20
 _ZNK7android7String84findEPKcm@Base 0.0.20
 _ZNK7android7String86lengthEv@Base 0.0.20
 _ZNK7android7String88getUtf32EPDi@Base 0.0.20
 _ZNK7android7String88walkPathEPS0_@Base 0.0.20
 _ZNK7android8String1610startsWithEPKDs@Base 0.0.20
 _ZNK7android8String1610startsWithERKS0_@Base 0.0.20
 _ZNK7android8String164sizeEv@Base 0.0.20
 _ZNK7android8String168containsEPKDs@Base 0.0.20
 _ZNK7android8String168findLastEDs@Base 0.0.20
 _ZNK7android8String169findFirstEDs@Base 0.0.20
 _ZNK7android9BlobCache10CacheEntry6getKeyEv@Base 0.0.20
 _ZNK7android9BlobCache10CacheEntry8getValueEv@Base 0.0.20
 _ZNK7android9BlobCache10CacheEntryltERKS1_@Base 0.0.20
 _ZNK7android9BlobCache11isCleanableEv@Base 0.0.20
 _ZNK7android9BlobCache16getFlattenedSizeEv@Base 0.0.20
 _ZNK7android9BlobCache4Blob7getDataEv@Base 0.0.20
 _ZNK7android9BlobCache4Blob7getSizeEv@Base 0.0.20
 _ZNK7android9BlobCache4BlobltERKS1_@Base 0.0.20
 _ZNK7android9BlobCache7flattenEPvm@Base 0.0.20
 _ZNK7android9CallStack3logEPKc19android_LogPriorityS2_@Base 0.0.20
 _ZNK7android9CallStack4dumpEiiPKc@Base 0.0.20
 _ZNK7android9CallStack5printERNS_7PrinterE@Base 0.0.20
 _ZNK7android9CallStack8toStringEPKc@Base 0.0.20
 _ZNK7android9StopWatch11elapsedTimeEv@Base 0.0.20
 _ZNK7android9StopWatch4nameEv@Base 0.0.20
 _ZNK7android9Tokenizer11getLocationEv@Base 0.0.20
 _ZNK7android9Tokenizer19peekRemainderOfLineEv@Base 0.0.20
 _ZTIN7android10LogPrinterE@Base 0.0.20
 _ZTIN7android10VectorImplE@Base 0.0.20
 _ZTIN7android12LightRefBaseINS_12NativeHandleEEE@Base 0.0.20
 _ZTIN7android12NativeHandleE@Base 0.0.20
 _ZTIN7android12SortedVectorINS_16key_value_pair_tINS_7String8ES2_EEEE@Base 0.0.20
 _ZTIN7android12SortedVectorINS_16key_value_pair_tIiNS_16ProcessCallStack10ThreadInfoEEEEE@Base 0.0.20
 _ZTIN7android12SortedVectorINS_16key_value_pair_tIiNS_6Looper7RequestEEEEE@Base 0.0.20
 _ZTIN7android12SortedVectorINS_9BlobCache10CacheEntryEEE@Base 0.0.20
 _ZTIN7android13PrefixPrinterE@Base 0.0.20
 _ZTIN7android14LooperCallbackE@Base 0.0.20
 _ZTIN7android14MessageHandlerE@Base 0.0.20
 _ZTIN7android14String8PrinterE@Base 0.0.20
 _ZTIN7android16SortedVectorImplE@Base 0.0.20
 _ZTIN7android18WeakMessageHandlerE@Base 0.0.20
 _ZTIN7android20SimpleLooperCallbackE@Base 0.0.20
 _ZTIN7android6LooperE@Base 0.0.20
 _ZTIN7android6ThreadE@Base 0.0.20
 _ZTIN7android6VectorINS_28sysprop_change_callback_infoEEE@Base 0.0.20
 _ZTIN7android6VectorINS_6Looper15MessageEnvelopeEEE@Base 0.0.20
 _ZTIN7android6VectorINS_6Looper8ResponseEEE@Base 0.0.20
 _ZTIN7android6VectorINS_7String8EEE@Base 0.0.20
 _ZTIN7android7PrinterE@Base 0.0.20
 _ZTIN7android7RefBaseE@Base 0.0.20
 _ZTIN7android9BlobCache4BlobE@Base 0.0.20
 _ZTIN7android9BlobCacheE@Base 0.0.20
 _ZTIN7android9FdPrinterE@Base 0.0.20
 _ZTSN7android10LogPrinterE@Base 0.0.20
 _ZTSN7android10VectorImplE@Base 0.0.20
 _ZTSN7android12LightRefBaseINS_12NativeHandleEEE@Base 0.0.20
 _ZTSN7android12NativeHandleE@Base 0.0.20
 _ZTSN7android12SortedVectorINS_16key_value_pair_tINS_7String8ES2_EEEE@Base 0.0.20
 _ZTSN7android12SortedVectorINS_16key_value_pair_tIiNS_16ProcessCallStack10ThreadInfoEEEEE@Base 0.0.20
 _ZTSN7android12SortedVectorINS_16key_value_pair_tIiNS_6Looper7RequestEEEEE@Base 0.0.20
 _ZTSN7android12SortedVectorINS_9BlobCache10CacheEntryEEE@Base 0.0.20
 _ZTSN7android13PrefixPrinterE@Base 0.0.20
 _ZTSN7android14LooperCallbackE@Base 0.0.20
 _ZTSN7android14MessageHandlerE@Base 0.0.20
 _ZTSN7android14String8PrinterE@Base 0.0.20
 _ZTSN7android16SortedVectorImplE@Base 0.0.20
 _ZTSN7android18WeakMessageHandlerE@Base 0.0.20
 _ZTSN7android20SimpleLooperCallbackE@Base 0.0.20
 _ZTSN7android6LooperE@Base 0.0.20
 _ZTSN7android6ThreadE@Base 0.0.20
 _ZTSN7android6VectorINS_28sysprop_change_callback_infoEEE@Base 0.0.20
 _ZTSN7android6VectorINS_6Looper15MessageEnvelopeEEE@Base 0.0.20
 _ZTSN7android6VectorINS_6Looper8ResponseEEE@Base 0.0.20
 _ZTSN7android6VectorINS_7String8EEE@Base 0.0.20
 _ZTSN7android7PrinterE@Base 0.0.20
 _ZTSN7android7RefBaseE@Base 0.0.20
 _ZTSN7android9BlobCache4BlobE@Base 0.0.20
 _ZTSN7android9BlobCacheE@Base 0.0.20
 _ZTSN7android9FdPrinterE@Base 0.0.20
 _ZTTN7android18WeakMessageHandlerE@Base 0.0.20
 _ZTTN7android20SimpleLooperCallbackE@Base 0.0.20
 _ZTTN7android6ThreadE@Base 0.0.20
 _ZTVN7android10LogPrinterE@Base 0.0.20
 _ZTVN7android10VectorImplE@Base 0.0.20
 _ZTVN7android12NativeHandleE@Base 0.0.20
 _ZTVN7android12SortedVectorINS_16key_value_pair_tINS_7String8ES2_EEEE@Base 0.0.20
 _ZTVN7android12SortedVectorINS_16key_value_pair_tIiNS_16ProcessCallStack10ThreadInfoEEEEE@Base 0.0.20
 _ZTVN7android12SortedVectorINS_16key_value_pair_tIiNS_6Looper7RequestEEEEE@Base 0.0.20
 _ZTVN7android12SortedVectorINS_9BlobCache10CacheEntryEEE@Base 0.0.20
 _ZTVN7android13PrefixPrinterE@Base 0.0.20
 _ZTVN7android14String8PrinterE@Base 0.0.20
 _ZTVN7android16SortedVectorImplE@Base 0.0.20
 _ZTVN7android18WeakMessageHandlerE@Base 0.0.20
 _ZTVN7android20SimpleLooperCallbackE@Base 0.0.20
 _ZTVN7android6LooperE@Base 0.0.20
 _ZTVN7android6ThreadE@Base 0.0.20
 _ZTVN7android6VectorINS_28sysprop_change_callback_infoEEE@Base 0.0.20
 _ZTVN7android6VectorINS_6Looper15MessageEnvelopeEEE@Base 0.0.20
 _ZTVN7android6VectorINS_6Looper8ResponseEEE@Base 0.0.20
 _ZTVN7android6VectorINS_7String8EEE@Base 0.0.20
 _ZTVN7android7PrinterE@Base 0.0.20
 _ZTVN7android7RefBaseE@Base 0.0.20
 _ZTVN7android9BlobCache4BlobE@Base 0.0.20
 _ZTVN7android9BlobCacheE@Base 0.0.20
 _ZTVN7android9FdPrinterE@Base 0.0.20
 _ZTv0_n24_N7android18WeakMessageHandlerD0Ev@Base 0.0.20
 _ZTv0_n24_N7android18WeakMessageHandlerD1Ev@Base 0.0.20
 _ZTv0_n24_N7android20SimpleLooperCallbackD0Ev@Base 0.0.20
 _ZTv0_n24_N7android20SimpleLooperCallbackD1Ev@Base 0.0.20
 _ZTv0_n24_N7android6ThreadD0Ev@Base 0.0.20
 _ZTv0_n24_N7android6ThreadD1Ev@Base 0.0.20
 androidCreateRawThreadEtc@Base 0.0.20
 androidCreateThread@Base 0.0.20
 androidCreateThreadEtc@Base 0.0.20
 androidGetThreadId@Base 0.0.20
 androidGetThreadPriority@Base 0.0.20
 androidSetCreateThreadFunc@Base 0.0.20
 androidSetThreadName@Base 0.0.20
 androidSetThreadPriority@Base 0.0.20
 strcmp16@Base 0.0.20
 strcpy16@Base 0.0.20
 strlen16@Base 0.0.20
 strlen32@Base 0.0.20
 strncmp16@Base 0.0.20
 strncpy16@Base 0.0.20
 strnlen16@Base 0.0.20
 strnlen32@Base 0.0.20
 strstr16@Base 0.0.20
 strzcmp16@Base 0.0.20
 strzcmp16_h_n@Base 0.0.20
 systemTime@Base 0.0.20
 toMillisecondTimeoutDelay@Base 0.0.20
 utf16_to_utf8@Base 0.0.20
 utf16_to_utf8_length@Base 0.0.20
 utf32_from_utf8_at@Base 0.0.20
 utf32_to_utf8@Base 0.0.20
 utf32_to_utf8_length@Base 0.0.20
 utf8_length@Base 0.0.20
 utf8_to_utf16@Base 0.0.20
 utf8_to_utf16_length@Base 0.0.20
 utf8_to_utf16_n@Base 0.0.20
 utf8_to_utf16_no_null_terminator@Base 0.0.20
 utf8_to_utf32@Base 0.0.20
 utf8_to_utf32_length@Base 0.0.20
