libandroid-pixelflinger.so.0 libandroid-pixelflinger0 #MINVER#
 _Z10gglMulDiviiii@Base 0.0.20
 _Z11gglFastDivxii@Base 0.0.20
 _Z13gglSqrtRecipxi@Base 0.0.20
 _Z19gglRecipQNormalizediPi@Base 0.0.20
 _Z7gglDivQiii@Base 0.0.20
 _Z7gglPowxii@Base 0.0.20
 _Z8gglSqrtxi@Base 0.0.20
 _Z9gglRecipQii@Base 0.0.20
 _ZN7android10ggl_expandEjii@Base 0.0.20
 _ZN7android11ggl_pick_cbEPNS_9context_tE@Base 0.0.20
 _ZN7android12GGLAssembler10mul_factorERNS0_11component_tERKNS0_9integer_tES5_@Base 0.0.20
 _ZN7android12GGLAssembler11base_offsetERKNS0_9pointer_tES3_RKNS0_5reg_tE@Base 0.0.20
 _ZN7android12GGLAssembler13build_maskingERNS0_7pixel_tERNS_17RegisterAllocator7ScratchE@Base 0.0.20
 _ZN7android12GGLAssembler13component_addERNS0_11component_tERKNS0_9integer_tES5_@Base 0.0.20
 _ZN7android12GGLAssembler13component_satERKNS0_11component_tE@Base 0.0.20
 _ZN7android12GGLAssembler13init_texturesEPNS0_11tex_coord_tERKNS0_5reg_tES5_@Base 0.0.20
 _ZN7android12GGLAssembler13scanline_coreERKNS_7needs_tEPKNS_9context_tE@Base 0.0.20
 _ZN7android12GGLAssembler14blending_codesEii@Base 0.0.20
 _ZN7android12GGLAssembler14build_blendingERNS0_11component_tERKNS0_7pixel_tEiRNS_17RegisterAllocator7ScratchE@Base 0.0.20
 _ZN7android12GGLAssembler14build_logic_opERNS0_7pixel_tERNS_17RegisterAllocator7ScratchE@Base 0.0.20
 _ZN7android12GGLAssembler14build_texturesERNS0_16fragment_parts_tERNS_17RegisterAllocator7ScratchE@Base 0.0.20
 _ZN7android12GGLAssembler14decodeTMUNeedsERKNS_7needs_tEPKNS_9context_tE@Base 0.0.20
 _ZN7android12GGLAssembler14mul_factor_addERNS0_11component_tERKNS0_9integer_tES5_RKS1_@Base 0.0.20
 _ZN7android12GGLAssembler15build_componentERNS0_7pixel_tERKNS0_16fragment_parts_tEiRNS_17RegisterAllocator7ScratchE@Base 0.0.20
 _ZN7android12GGLAssembler15build_iterate_fERKNS0_16fragment_parts_tE@Base 0.0.20
 _ZN7android12GGLAssembler15build_iterate_zERKNS0_16fragment_parts_tE@Base 0.0.20
 _ZN7android12GGLAssembler16build_alpha_testERNS0_11component_tERKNS0_16fragment_parts_tE@Base 0.0.20
 _ZN7android12GGLAssembler16build_depth_testERKNS0_16fragment_parts_tEj@Base 0.0.20
 _ZN7android12GGLAssembler18build_blend_factorERNS0_9integer_tEiiRKNS0_7pixel_tES2_S2_RNS_17RegisterAllocator7ScratchE@Base 0.0.20
 _ZN7android12GGLAssembler18build_smooth_shadeERKNS0_16fragment_parts_tE@Base 0.0.20
 _ZN7android12GGLAssembler18decodeLogicOpNeedsERKNS_7needs_tE@Base 0.0.20
 _ZN7android12GGLAssembler19build_and_immediateEiiji@Base 0.0.20
 _ZN7android12GGLAssembler19init_iterated_colorERNS0_16fragment_parts_tERKNS0_5reg_tE@Base 0.0.20
 _ZN7android12GGLAssembler20build_iterated_colorERNS0_11component_tERKNS0_16fragment_parts_tEiRNS_17RegisterAllocator7ScratchE@Base 0.0.20
 _ZN7android12GGLAssembler21build_blendFOneMinusFERNS0_11component_tERKNS0_9integer_tES5_S5_@Base 0.0.20
 _ZN7android12GGLAssembler21build_blendOneMinusFFERNS0_11component_tERKNS0_9integer_tES5_S5_@Base 0.0.20
 _ZN7android12GGLAssembler21build_scanline_prologERNS0_16fragment_parts_tERKNS_7needs_tE@Base 0.0.20
 _ZN7android12GGLAssembler24build_incoming_componentERNS0_11component_tEiRKNS0_16fragment_parts_tEiRNS_17RegisterAllocator7ScratchES8_@Base 0.0.20
 _ZN7android12GGLAssembler25build_texture_environmentERNS0_11component_tERKNS0_16fragment_parts_tEiRNS_17RegisterAllocator7ScratchE@Base 0.0.20
 _ZN7android12GGLAssembler26build_coverage_applicationERNS0_11component_tERKNS0_16fragment_parts_tERNS_17RegisterAllocator7ScratchE@Base 0.0.20
 _ZN7android12GGLAssembler33build_iterate_texture_coordinatesERKNS0_16fragment_parts_tE@Base 0.0.20
 _ZN7android12GGLAssembler3addERNS0_11component_tERKS1_RKNS0_7pixel_tEi@Base 0.0.20
 _ZN7android12GGLAssembler4loadERKNS0_9pointer_tERKNS0_7pixel_tEj@Base 0.0.20
 _ZN7android12GGLAssembler5blendERNS0_11component_tERKS1_RKNS0_7pixel_tEii@Base 0.0.20
 _ZN7android12GGLAssembler5decalERNS0_11component_tERKS1_RKNS0_7pixel_tEi@Base 0.0.20
 _ZN7android12GGLAssembler5resetEi@Base 0.0.20
 _ZN7android12GGLAssembler5storeERKNS0_9pointer_tERKNS0_7pixel_tEj@Base 0.0.20
 _ZN7android12GGLAssembler6epilogEj@Base 0.0.20
 _ZN7android12GGLAssembler6expandERNS0_11component_tERKS1_i@Base 0.0.20
 _ZN7android12GGLAssembler6expandERNS0_9integer_tERKNS0_11component_tEi@Base 0.0.20
 _ZN7android12GGLAssembler6expandERNS0_9integer_tERKS1_i@Base 0.0.20
 _ZN7android12GGLAssembler6prologEv@Base 0.0.20
 _ZN7android12GGLAssembler7extractERNS0_11component_tERKNS0_7pixel_tEi@Base 0.0.20
 _ZN7android12GGLAssembler7extractERNS0_9integer_tERKNS0_7pixel_tEi@Base 0.0.20
 _ZN7android12GGLAssembler7extractERNS0_9integer_tEiiii@Base 0.0.20
 _ZN7android12GGLAssembler7filter8ERKNS0_16fragment_parts_tERNS0_7pixel_tERKNS0_14texture_unit_tEiiRNS0_9pointer_tEi@Base 0.0.20
 _ZN7android12GGLAssembler8filter16ERKNS0_16fragment_parts_tERNS0_7pixel_tERKNS0_14texture_unit_tEiiRNS0_9pointer_tEi@Base 0.0.20
 _ZN7android12GGLAssembler8filter24ERKNS0_16fragment_parts_tERNS0_7pixel_tERKNS0_14texture_unit_tEiiRNS0_9pointer_tEi@Base 0.0.20
 _ZN7android12GGLAssembler8filter32ERKNS0_16fragment_parts_tERNS0_7pixel_tERKNS0_14texture_unit_tEiiRNS0_9pointer_tEi@Base 0.0.20
 _ZN7android12GGLAssembler8modulateERNS0_11component_tERKS1_RKNS0_7pixel_tEi@Base 0.0.20
 _ZN7android12GGLAssembler8scanlineERKNS_7needs_tEPKNS_9context_tE@Base 0.0.20
 _ZN7android12GGLAssembler8wrappingEiiiii@Base 0.0.20
 _ZN7android12GGLAssembler9build_fogERNS0_11component_tEiRNS_17RegisterAllocator7ScratchE@Base 0.0.20
 _ZN7android12GGLAssembler9downshiftERNS0_7pixel_tEiNS0_11component_tERKNS0_5reg_tE@Base 0.0.20
 _ZN7android12GGLAssemblerC1EPNS_21ARMAssemblerInterfaceE@Base 0.0.20
 _ZN7android12GGLAssemblerC2EPNS_21ARMAssemblerInterfaceE@Base 0.0.20
 _ZN7android12GGLAssemblerD0Ev@Base 0.0.20
 _ZN7android12GGLAssemblerD1Ev@Base 0.0.20
 _ZN7android12GGLAssemblerD2Ev@Base 0.0.20
 _ZN7android12SortedVectorINS_16key_value_pair_tINS_9CodeCache5key_tENS2_13cache_entry_tEEEED0Ev@Base 0.0.20
 _ZN7android12SortedVectorINS_16key_value_pair_tINS_9CodeCache5key_tENS2_13cache_entry_tEEEED1Ev@Base 0.0.20
 _ZN7android12SortedVectorINS_16key_value_pair_tINS_9CodeCache5key_tENS2_13cache_entry_tEEEED2Ev@Base 0.0.20
 _ZN7android13ggl_init_trapEPNS_9context_tE@Base 0.0.20
 _ZN7android14ggl_init_clearEPNS_9context_tE@Base 0.0.20
 _ZN7android14ggl_pack_colorEPNS_9context_tEiiiii@Base 0.0.20
 _ZN7android15ggl_init_pickerEPNS_9context_tE@Base 0.0.20
 _ZN7android15ggl_init_rasterEPNS_9context_tE@Base 0.0.20
 _ZN7android15ggl_set_surfaceEPNS_9context_tEPNS_9surface_tEPK10GGLSurface@Base 0.0.20
 _ZN7android15ggl_system_timeEv@Base 0.0.20
 _ZN7android16ggl_init_contextEPNS_9context_tE@Base 0.0.20
 _ZN7android16ggl_init_textureEPNS_9context_tE@Base 0.0.20
 _ZN7android16ggl_pick_textureEPNS_9context_tE@Base 0.0.20
 _ZN7android16mspace_bulk_freeEPvPS0_m@Base 0.0.20
 _ZN7android17ARMAssemblerProxy10immed8_preEii@Base 0.0.20
 _ZN7android17ARMAssemblerProxy10pcForLabelEPKc@Base 0.0.20
 _ZN7android17ARMAssemblerProxy11disassembleEPKc@Base 0.0.20
 _ZN7android17ARMAssemblerProxy11immed12_preEii@Base 0.0.20
 _ZN7android17ARMAssemblerProxy11immed8_postEi@Base 0.0.20
 _ZN7android17ARMAssemblerProxy12immed12_postEi@Base 0.0.20
 _ZN7android17ARMAssemblerProxy13reg_scale_preEiiji@Base 0.0.20
 _ZN7android17ARMAssemblerProxy14buildImmediateEjRjS1_@Base 0.0.20
 _ZN7android17ARMAssemblerProxy14dataProcessingEiiiiij@Base 0.0.20
 _ZN7android17ARMAssemblerProxy14getCodegenArchEv@Base 0.0.20
 _ZN7android17ARMAssemblerProxy14reg_scale_postEiij@Base 0.0.20
 _ZN7android17ARMAssemblerProxy16isValidImmediateEj@Base 0.0.20
 _ZN7android17ARMAssemblerProxy1BEiPKc@Base 0.0.20
 _ZN7android17ARMAssemblerProxy1BEiPj@Base 0.0.20
 _ZN7android17ARMAssemblerProxy2BLEiPKc@Base 0.0.20
 _ZN7android17ARMAssemblerProxy2BLEiPj@Base 0.0.20
 _ZN7android17ARMAssemblerProxy2BXEii@Base 0.0.20
 _ZN7android17ARMAssemblerProxy3CLZEiii@Base 0.0.20
 _ZN7android17ARMAssemblerProxy3LDMEiiiij@Base 0.0.20
 _ZN7android17ARMAssemblerProxy3LDREiiij@Base 0.0.20
 _ZN7android17ARMAssemblerProxy3MLAEiiiiii@Base 0.0.20
 _ZN7android17ARMAssemblerProxy3MULEiiiii@Base 0.0.20
 _ZN7android17ARMAssemblerProxy3PLDEij@Base 0.0.20
 _ZN7android17ARMAssemblerProxy3STMEiiiij@Base 0.0.20
 _ZN7android17ARMAssemblerProxy3STREiiij@Base 0.0.20
 _ZN7android17ARMAssemblerProxy3SWIEij@Base 0.0.20
 _ZN7android17ARMAssemblerProxy3SWPEiiii@Base 0.0.20
 _ZN7android17ARMAssemblerProxy3immEj@Base 0.0.20
 _ZN7android17ARMAssemblerProxy4LDRBEiiij@Base 0.0.20
 _ZN7android17ARMAssemblerProxy4LDRHEiiij@Base 0.0.20
 _ZN7android17ARMAssemblerProxy4QADDEiiii@Base 0.0.20
 _ZN7android17ARMAssemblerProxy4QSUBEiiii@Base 0.0.20
 _ZN7android17ARMAssemblerProxy4SMLAEiiiiii@Base 0.0.20
 _ZN7android17ARMAssemblerProxy4SMULEiiiii@Base 0.0.20
 _ZN7android17ARMAssemblerProxy4STRBEiiij@Base 0.0.20
 _ZN7android17ARMAssemblerProxy4STRHEiiij@Base 0.0.20
 _ZN7android17ARMAssemblerProxy4SWPBEiiii@Base 0.0.20
 _ZN7android17ARMAssemblerProxy4UBFXEiiiii@Base 0.0.20
 _ZN7android17ARMAssemblerProxy5LDRSBEiiij@Base 0.0.20
 _ZN7android17ARMAssemblerProxy5LDRSHEiiij@Base 0.0.20
 _ZN7android17ARMAssemblerProxy5QDADDEiiii@Base 0.0.20
 _ZN7android17ARMAssemblerProxy5QDSUBEiiii@Base 0.0.20
 _ZN7android17ARMAssemblerProxy5SMLALEiiiiii@Base 0.0.20
 _ZN7android17ARMAssemblerProxy5SMLAWEiiiiii@Base 0.0.20
 _ZN7android17ARMAssemblerProxy5SMUALEiiiiii@Base 0.0.20
 _ZN7android17ARMAssemblerProxy5SMULLEiiiiii@Base 0.0.20
 _ZN7android17ARMAssemblerProxy5SMULWEiiiii@Base 0.0.20
 _ZN7android17ARMAssemblerProxy5UMUALEiiiiii@Base 0.0.20
 _ZN7android17ARMAssemblerProxy5UMULLEiiiiii@Base 0.0.20
 _ZN7android17ARMAssemblerProxy5labelEPKc@Base 0.0.20
 _ZN7android17ARMAssemblerProxy5resetEv@Base 0.0.20
 _ZN7android17ARMAssemblerProxy6UXTB16Eiiii@Base 0.0.20
 _ZN7android17ARMAssemblerProxy6epilogEj@Base 0.0.20
 _ZN7android17ARMAssemblerProxy6prologEv@Base 0.0.20
 _ZN7android17ARMAssemblerProxy7commentEPKc@Base 0.0.20
 _ZN7android17ARMAssemblerProxy7reg_immEiij@Base 0.0.20
 _ZN7android17ARMAssemblerProxy7reg_preEii@Base 0.0.20
 _ZN7android17ARMAssemblerProxy7reg_regEiii@Base 0.0.20
 _ZN7android17ARMAssemblerProxy7reg_rrxEi@Base 0.0.20
 _ZN7android17ARMAssemblerProxy8ADDR_ADDEiiiij@Base 0.0.20
 _ZN7android17ARMAssemblerProxy8ADDR_LDREiiij@Base 0.0.20
 _ZN7android17ARMAssemblerProxy8ADDR_STREiiij@Base 0.0.20
 _ZN7android17ARMAssemblerProxy8ADDR_SUBEiiiij@Base 0.0.20
 _ZN7android17ARMAssemblerProxy8generateEPKc@Base 0.0.20
 _ZN7android17ARMAssemblerProxy8reg_postEi@Base 0.0.20
 _ZN7android17ARMAssemblerProxy9setTargetEPNS_21ARMAssemblerInterfaceE@Base 0.0.20
 _ZN7android17ARMAssemblerProxyC1EPNS_21ARMAssemblerInterfaceE@Base 0.0.20
 _ZN7android17ARMAssemblerProxyC1Ev@Base 0.0.20
 _ZN7android17ARMAssemblerProxyC2EPNS_21ARMAssemblerInterfaceE@Base 0.0.20
 _ZN7android17ARMAssemblerProxyC2Ev@Base 0.0.20
 _ZN7android17ARMAssemblerProxyD0Ev@Base 0.0.20
 _ZN7android17ARMAssemblerProxyD1Ev@Base 0.0.20
 _ZN7android17ARMAssemblerProxyD2Ev@Base 0.0.20
 _ZN7android17RegisterAllocator10recycleRegEi@Base 0.0.20
 _ZN7android17RegisterAllocator10reserveRegEi@Base 0.0.20
 _ZN7android17RegisterAllocator12RegisterFile14recycleSeveralEj@Base 0.0.20
 _ZN7android17RegisterAllocator12RegisterFile14reserveSeveralEj@Base 0.0.20
 _ZN7android17RegisterAllocator12RegisterFile5resetEv@Base 0.0.20
 _ZN7android17RegisterAllocator12RegisterFile6obtainEv@Base 0.0.20
 _ZN7android17RegisterAllocator12RegisterFile7recycleEi@Base 0.0.20
 _ZN7android17RegisterAllocator12RegisterFile7reserveEi@Base 0.0.20
 _ZN7android17RegisterAllocator12RegisterFileC1ERKS1_i@Base 0.0.20
 _ZN7android17RegisterAllocator12RegisterFileC1Ei@Base 0.0.20
 _ZN7android17RegisterAllocator12RegisterFileC2ERKS1_i@Base 0.0.20
 _ZN7android17RegisterAllocator12RegisterFileC2Ei@Base 0.0.20
 _ZN7android17RegisterAllocator12RegisterFileD1Ev@Base 0.0.20
 _ZN7android17RegisterAllocator12RegisterFileD2Ev@Base 0.0.20
 _ZN7android17RegisterAllocator12registerFileEv@Base 0.0.20
 _ZN7android17RegisterAllocator5SpillD1Ev@Base 0.0.20
 _ZN7android17RegisterAllocator5SpillD2Ev@Base 0.0.20
 _ZN7android17RegisterAllocator5resetEv@Base 0.0.20
 _ZN7android17RegisterAllocator9obtainRegEv@Base 0.0.20
 _ZN7android17RegisterAllocatorC1Ei@Base 0.0.20
 _ZN7android17RegisterAllocatorC2Ei@Base 0.0.20
 _ZN7android17ggl_init_scanlineEPNS_9context_tE@Base 0.0.20
 _ZN7android17ggl_pick_scanlineEPNS_9context_tE@Base 0.0.20
 _ZN7android17ggl_state_changedEPNS_9context_tEi@Base 0.0.20
 _ZN7android18ggl_uninit_contextEPNS_9context_tE@Base 0.0.20
 _ZN7android19ggl_uninit_scanlineEPNS_9context_tE@Base 0.0.20
 _ZN7android19horz_clamp_iterator4initEPKNS_9context_tEi@Base 0.0.20
 _ZN7android21ARMAssemblerInterface12__immed8_preEii@Base 0.0.20
 _ZN7android21ARMAssemblerInterface13__immed12_preEii@Base 0.0.20
 _ZN7android21ARMAssemblerInterface8ADDR_ADDEiiiij@Base 0.0.20
 _ZN7android21ARMAssemblerInterface8ADDR_LDREiiij@Base 0.0.20
 _ZN7android21ARMAssemblerInterface8ADDR_STREiiij@Base 0.0.20
 _ZN7android21ARMAssemblerInterface8ADDR_SUBEiiiij@Base 0.0.20
 _ZN7android21ARMAssemblerInterfaceD0Ev@Base 0.0.20
 _ZN7android21ARMAssemblerInterfaceD1Ev@Base 0.0.20
 _ZN7android21ARMAssemblerInterfaceD2Ev@Base 0.0.20
 _ZN7android22mspace_footprint_limitEPv@Base 0.0.20
 _ZN7android23mspace_realloc_in_placeEPvS0_m@Base 0.0.20
 _ZN7android26mspace_set_footprint_limitEPvm@Base 0.0.20
 _ZN7android6AAEdge4dumpEv@Base 0.0.20
 _ZN7android8Assembly6resizeEm@Base 0.0.20
 _ZN7android8AssemblyC1Em@Base 0.0.20
 _ZN7android8AssemblyC2Em@Base 0.0.20
 _ZN7android8AssemblyD0Ev@Base 0.0.20
 _ZN7android8AssemblyD1Ev@Base 0.0.20
 _ZN7android8AssemblyD2Ev@Base 0.0.20
 _ZN7android8ggl_pickEPNS_9context_tE@Base 0.0.20
 _ZN7android9CodeCache5cacheERKNS_15AssemblyKeyBaseERKNS_9tinyutils2spINS_8AssemblyEEE@Base 0.0.20
 _ZN7android9CodeCacheC1Em@Base 0.0.20
 _ZN7android9CodeCacheC2Em@Base 0.0.20
 _ZN7android9CodeCacheD1Ev@Base 0.0.20
 _ZN7android9CodeCacheD2Ev@Base 0.0.20
 _ZN7android9ggl_errorEPNS_9context_tEj@Base 0.0.20
 _ZNK7android12GGLAssembler19isAlphaSourceNeededEv@Base 0.0.20
 _ZNK7android12SortedVectorINS_16key_value_pair_tINS_9CodeCache5key_tENS2_13cache_entry_tEEEE10do_compareEPKvS8_@Base 0.0.20
 _ZNK7android12SortedVectorINS_16key_value_pair_tINS_9CodeCache5key_tENS2_13cache_entry_tEEEE10do_destroyEPvm@Base 0.0.20
 _ZNK7android12SortedVectorINS_16key_value_pair_tINS_9CodeCache5key_tENS2_13cache_entry_tEEEE12do_constructEPvm@Base 0.0.20
 _ZNK7android12SortedVectorINS_16key_value_pair_tINS_9CodeCache5key_tENS2_13cache_entry_tEEEE15do_move_forwardEPvPKvm@Base 0.0.20
 _ZNK7android12SortedVectorINS_16key_value_pair_tINS_9CodeCache5key_tENS2_13cache_entry_tEEEE16do_move_backwardEPvPKvm@Base 0.0.20
 _ZNK7android12SortedVectorINS_16key_value_pair_tINS_9CodeCache5key_tENS2_13cache_entry_tEEEE7do_copyEPvPKvm@Base 0.0.20
 _ZNK7android12SortedVectorINS_16key_value_pair_tINS_9CodeCache5key_tENS2_13cache_entry_tEEEE8do_splatEPvPKvm@Base 0.0.20
 _ZNK7android17RegisterAllocator12RegisterFile11hasFreeRegsEv@Base 0.0.20
 _ZNK7android17RegisterAllocator12RegisterFile13countFreeRegsEv@Base 0.0.20
 _ZNK7android17RegisterAllocator12RegisterFile7touchedEv@Base 0.0.20
 _ZNK7android17RegisterAllocator12RegisterFileeqERKS1_@Base 0.0.20
 _ZNK7android8Assembly4baseEv@Base 0.0.20
 _ZNK7android8Assembly4sizeEv@Base 0.0.20
 _ZNK7android8Assembly9decStrongEPKv@Base 0.0.20
 _ZNK7android8Assembly9incStrongEPKv@Base 0.0.20
 _ZNK7android9CodeCache6lookupERKNS_15AssemblyKeyBaseE@Base 0.0.20
 _ZTIN7android12GGLAssemblerE@Base 0.0.20
 _ZTIN7android12SortedVectorINS_16key_value_pair_tINS_9CodeCache5key_tENS2_13cache_entry_tEEEEE@Base 0.0.20
 _ZTIN7android17ARMAssemblerProxyE@Base 0.0.20
 _ZTIN7android17RegisterAllocatorE@Base 0.0.20
 _ZTIN7android21ARMAssemblerInterfaceE@Base 0.0.20
 _ZTIN7android8AssemblyE@Base 0.0.20
 _ZTSN7android12GGLAssemblerE@Base 0.0.20
 _ZTSN7android12SortedVectorINS_16key_value_pair_tINS_9CodeCache5key_tENS2_13cache_entry_tEEEEE@Base 0.0.20
 _ZTSN7android17ARMAssemblerProxyE@Base 0.0.20
 _ZTSN7android17RegisterAllocatorE@Base 0.0.20
 _ZTSN7android21ARMAssemblerInterfaceE@Base 0.0.20
 _ZTSN7android8AssemblyE@Base 0.0.20
 _ZTVN7android12GGLAssemblerE@Base 0.0.20
 _ZTVN7android12SortedVectorINS_16key_value_pair_tINS_9CodeCache5key_tENS2_13cache_entry_tEEEEE@Base 0.0.20
 _ZTVN7android17ARMAssemblerProxyE@Base 0.0.20
 _ZTVN7android21ARMAssemblerInterfaceE@Base 0.0.20
 _ZTVN7android8AssemblyE@Base 0.0.20
 create_mspace@Base 0.0.20
 create_mspace_with_base@Base 0.0.20
 destroy_mspace@Base 0.0.20
 gglBitBlit@Base 0.0.20
 gglGetPixelFormatTable@Base 0.0.20
 gglInit@Base 0.0.20
 gglUninit@Base 0.0.20
 mspace_calloc@Base 0.0.20
 mspace_footprint@Base 0.0.20
 mspace_free@Base 0.0.20
 mspace_independent_calloc@Base 0.0.20
 mspace_independent_comalloc@Base 0.0.20
 mspace_malloc@Base 0.0.20
 mspace_malloc_stats@Base 0.0.20
 mspace_mallopt@Base 0.0.20
 mspace_max_footprint@Base 0.0.20
 mspace_memalign@Base 0.0.20
 mspace_realloc@Base 0.0.20
 mspace_track_large_chunks@Base 0.0.20
 mspace_trim@Base 0.0.20
 mspace_usable_size@Base 0.0.20
