libandroid-backtrace.so.0 libandroid-backtrace0 #MINVER#
 _ZN11ThreadEntry11list_mutex_E@Base 0.0.20
 _ZN11ThreadEntry26CopyUcontextFromSigcontextEPv@Base 0.0.20
 _ZN11ThreadEntry3GetEiib@Base 0.0.20
 _ZN11ThreadEntry4WaitEi@Base 0.0.20
 _ZN11ThreadEntry4WakeEv@Base 0.0.20
 _ZN11ThreadEntry5list_E@Base 0.0.20
 _ZN11ThreadEntry6RemoveEPS_@Base 0.0.20
 _ZN11ThreadEntryC1Eii@Base 0.0.20
 _ZN11ThreadEntryC2Eii@Base 0.0.20
 _ZN11ThreadEntryD1Ev@Base 0.0.20
 _ZN11ThreadEntryD2Ev@Base 0.0.20
 _ZN12BacktraceMap5BuildEv@Base 0.0.20
 _ZN12BacktraceMap6CreateEiRKSt6vectorI15backtrace_map_tSaIS1_EE@Base 0.0.20
 _ZN12BacktraceMap6CreateEib@Base 0.0.20
 _ZN12BacktraceMap6FillInEmP15backtrace_map_t@Base 0.0.20
 _ZN12BacktraceMap9ParseLineEPKcP15backtrace_map_t@Base 0.0.20
 _ZN12BacktraceMapC1Ei@Base 0.0.20
 _ZN12BacktraceMapC2Ei@Base 0.0.20
 _ZN12BacktraceMapD0Ev@Base 0.0.20
 _ZN12BacktraceMapD1Ev@Base 0.0.20
 _ZN12BacktraceMapD2Ev@Base 0.0.20
 _ZN12UnwindPtrace18GetFunctionNameRawB5cxx11EmPm@Base 0.0.20
 _ZN12UnwindPtrace6UnwindEmP8ucontext@Base 0.0.20
 _ZN12UnwindPtraceC1EiiP12BacktraceMap@Base 0.0.20
 _ZN12UnwindPtraceC2EiiP12BacktraceMap@Base 0.0.20
 _ZN12UnwindPtraceD0Ev@Base 0.0.20
 _ZN12UnwindPtraceD1Ev@Base 0.0.20
 _ZN12UnwindPtraceD2Ev@Base 0.0.20
 _ZN13UnwindCurrent17UnwindFromContextEmP8ucontext@Base 0.0.20
 _ZN13UnwindCurrent18GetFunctionNameRawB5cxx11EmPm@Base 0.0.20
 _ZN13UnwindCurrent25GetUnwContextFromUcontextEPK8ucontext@Base 0.0.20
 _ZN13UnwindCurrentD0Ev@Base 0.0.20
 _ZN13UnwindCurrentD1Ev@Base 0.0.20
 _ZN13UnwindCurrentD2Ev@Base 0.0.20
 _ZN14UnwindMapLocal11GenerateMapEv@Base 0.0.20
 _ZN14UnwindMapLocal5BuildEv@Base 0.0.20
 _ZN14UnwindMapLocal6FillInEmP15backtrace_map_t@Base 0.0.20
 _ZN14UnwindMapLocalC1Ev@Base 0.0.20
 _ZN14UnwindMapLocalC2Ev@Base 0.0.20
 _ZN14UnwindMapLocalD0Ev@Base 0.0.20
 _ZN14UnwindMapLocalD1Ev@Base 0.0.20
 _ZN14UnwindMapLocalD2Ev@Base 0.0.20
 _ZN15BacktracePtrace4ReadEmPhm@Base 0.0.20
 _ZN15BacktracePtrace8ReadWordEmPm@Base 0.0.20
 _ZN15UnwindMapRemote11GenerateMapEv@Base 0.0.20
 _ZN15UnwindMapRemote5BuildEv@Base 0.0.20
 _ZN15UnwindMapRemoteC1Ei@Base 0.0.20
 _ZN15UnwindMapRemoteC2Ei@Base 0.0.20
 _ZN15UnwindMapRemoteD0Ev@Base 0.0.20
 _ZN15UnwindMapRemoteD1Ev@Base 0.0.20
 _ZN15UnwindMapRemoteD2Ev@Base 0.0.20
 _ZN16BacktraceCurrent12DiscardFrameERK22backtrace_frame_data_t@Base 0.0.20
 _ZN16BacktraceCurrent12UnwindThreadEm@Base 0.0.20
 _ZN16BacktraceCurrent4ReadEmPhm@Base 0.0.20
 _ZN16BacktraceCurrent6UnwindEmP8ucontext@Base 0.0.20
 _ZN16BacktraceCurrent8ReadWordEmPm@Base 0.0.20
 _ZN9Backtrace14GetErrorStringB5cxx11E20BacktraceUnwindError@Base 0.0.20
 _ZN9Backtrace15FormatFrameDataB5cxx11EPK22backtrace_frame_data_t@Base 0.0.20
 _ZN9Backtrace15FormatFrameDataB5cxx11Em@Base 0.0.20
 _ZN9Backtrace15GetFunctionNameB5cxx11EmPm@Base 0.0.20
 _ZN9Backtrace18VerifyReadWordArgsEmPm@Base 0.0.20
 _ZN9Backtrace6CreateEiiP12BacktraceMap@Base 0.0.20
 _ZN9Backtrace9FillInMapEmP15backtrace_map_t@Base 0.0.20
 _ZN9BacktraceC1EiiP12BacktraceMap@Base 0.0.20
 _ZN9BacktraceC2EiiP12BacktraceMap@Base 0.0.20
 _ZN9BacktraceD0Ev@Base 0.0.20
 _ZN9BacktraceD1Ev@Base 0.0.20
 _ZN9BacktraceD2Ev@Base 0.0.20
 _ZN9UnwindMapC1Ei@Base 0.0.20
 _ZN9UnwindMapC2Ei@Base 0.0.20
 _ZN9UnwindMapD0Ev@Base 0.0.20
 _ZN9UnwindMapD1Ev@Base 0.0.20
 _ZN9UnwindMapD2Ev@Base 0.0.20
 _ZNSt5dequeI15backtrace_map_tSaIS0_EE13_M_insert_auxIN9__gnu_cxx17__normal_iteratorIPKS0_St6vectorIS0_S1_EEEEEvSt15_Deque_iteratorIS0_RS0_PS0_ET_SF_m@Base 0.0.20
 _ZNSt5dequeI15backtrace_map_tSaIS0_EE16_M_push_back_auxIJRKS0_EEEvDpOT_@Base 0.0.20
 _ZNSt5dequeI15backtrace_map_tSaIS0_EE17_M_push_front_auxIJRKS0_EEEvDpOT_@Base 0.0.20
 _ZNSt5dequeI15backtrace_map_tSaIS0_EE17_M_reallocate_mapEmb@Base 0.0.20
 _ZNSt5dequeI15backtrace_map_tSaIS0_EE19_M_range_insert_auxIN9__gnu_cxx17__normal_iteratorIPKS0_St6vectorIS0_S1_EEEEEvSt15_Deque_iteratorIS0_RS0_PS0_ET_SF_St20forward_iterator_tag@Base 0.0.20
 _ZNSt5dequeI15backtrace_map_tSaIS0_EE23_M_new_elements_at_backEm@Base 0.0.20
 _ZNSt5dequeI15backtrace_map_tSaIS0_EE24_M_new_elements_at_frontEm@Base 0.0.20
 _ZNSt6vectorI22backtrace_frame_data_tSaIS0_EE17_M_default_appendEm@Base 0.0.20
 _ZSt8_DestroyISt15_Deque_iteratorI15backtrace_map_tRS1_PS1_EEvT_S5_@Base 0.0.20
 _ZTI12BacktraceMap@Base 0.0.20
 _ZTI12UnwindPtrace@Base 0.0.20
 _ZTI13UnwindCurrent@Base 0.0.20
 _ZTI14UnwindMapLocal@Base 0.0.20
 _ZTI15BacktracePtrace@Base 0.0.20
 _ZTI15UnwindMapRemote@Base 0.0.20
 _ZTI16BacktraceCurrent@Base 0.0.20
 _ZTI9Backtrace@Base 0.0.20
 _ZTI9UnwindMap@Base 0.0.20
 _ZTS12BacktraceMap@Base 0.0.20
 _ZTS12UnwindPtrace@Base 0.0.20
 _ZTS13UnwindCurrent@Base 0.0.20
 _ZTS14UnwindMapLocal@Base 0.0.20
 _ZTS15BacktracePtrace@Base 0.0.20
 _ZTS15UnwindMapRemote@Base 0.0.20
 _ZTS16BacktraceCurrent@Base 0.0.20
 _ZTS9Backtrace@Base 0.0.20
 _ZTS9UnwindMap@Base 0.0.20
 _ZTV12BacktraceMap@Base 0.0.20
 _ZTV12UnwindPtrace@Base 0.0.20
 _ZTV13UnwindCurrent@Base 0.0.20
 _ZTV14UnwindMapLocal@Base 0.0.20
 _ZTV15BacktracePtrace@Base 0.0.20
 _ZTV15UnwindMapRemote@Base 0.0.20
 _ZTV16BacktraceCurrent@Base 0.0.20
 _ZTV9Backtrace@Base 0.0.20
 _ZTV9UnwindMap@Base 0.0.20
 tgkill@Base 0.0.20
