libandroid-ziparchive.so.0 libandroid-ziparchive0 #MINVER#
 CloseArchive@Base 0.0.20
 EndIteration@Base 0.0.20
 ErrorCodeString@Base 0.0.20
 ExtractEntryToFile@Base 0.0.20
 ExtractToMemory@Base 0.0.20
 FindEntry@Base 0.0.20
 GetFileDescriptor@Base 0.0.20
 Next@Base 0.0.20
 OpenArchive@Base 0.0.20
 OpenArchiveFd@Base 0.0.20
 StartIteration@Base 0.0.20
 _Z15ExtractToWriterPvP8ZipEntryP6Writer@Base 0.0.20
 _ZN10FileWriter6AppendEPhm@Base 0.0.20
 _ZN10FileWriterD0Ev@Base 0.0.20
 _ZN10FileWriterD1Ev@Base 0.0.20
 _ZN10FileWriterD2Ev@Base 0.0.20
 _ZN12MemoryWriter6AppendEPhm@Base 0.0.20
 _ZN12MemoryWriterD0Ev@Base 0.0.20
 _ZN12MemoryWriterD1Ev@Base 0.0.20
 _ZN12MemoryWriterD2Ev@Base 0.0.20
 _ZN21ZipArchiveStreamEntry4InitERK8ZipEntry@Base 0.0.20
 _ZN21ZipArchiveStreamEntry6CreateEPvRK8ZipEntry@Base 0.0.20
 _ZN21ZipArchiveStreamEntry9CreateRawEPvRK8ZipEntry@Base 0.0.20
 _ZN31ZipArchiveStreamEntryCompressed4InitERK8ZipEntry@Base 0.0.20
 _ZN31ZipArchiveStreamEntryCompressed4ReadEv@Base 0.0.20
 _ZN31ZipArchiveStreamEntryCompressed6VerifyEv@Base 0.0.20
 _ZN31ZipArchiveStreamEntryCompressedD0Ev@Base 0.0.20
 _ZN31ZipArchiveStreamEntryCompressedD1Ev@Base 0.0.20
 _ZN31ZipArchiveStreamEntryCompressedD2Ev@Base 0.0.20
 _ZN33ZipArchiveStreamEntryUncompressed4InitERK8ZipEntry@Base 0.0.20
 _ZN33ZipArchiveStreamEntryUncompressed4ReadEv@Base 0.0.20
 _ZN33ZipArchiveStreamEntryUncompressed6VerifyEv@Base 0.0.20
 _ZN33ZipArchiveStreamEntryUncompressedD0Ev@Base 0.0.20
 _ZN33ZipArchiveStreamEntryUncompressedD1Ev@Base 0.0.20
 _ZN33ZipArchiveStreamEntryUncompressedD2Ev@Base 0.0.20
 _ZN34ZipArchiveStreamEntryRawCompressed4InitERK8ZipEntry@Base 0.0.20
 _ZN34ZipArchiveStreamEntryRawCompressed6VerifyEv@Base 0.0.20
 _ZN34ZipArchiveStreamEntryRawCompressedD0Ev@Base 0.0.20
 _ZN34ZipArchiveStreamEntryRawCompressedD1Ev@Base 0.0.20
 _ZN34ZipArchiveStreamEntryRawCompressedD2Ev@Base 0.0.20
 _ZN9ZipWriter10StartEntryEPKcm@Base 0.0.20
 _ZN9ZipWriter10StoreBytesEPNS_8FileInfoEPKvm@Base 0.0.20
 _ZN9ZipWriter10WriteBytesEPKvm@Base 0.0.20
 _ZN9ZipWriter11FinishEntryEv@Base 0.0.20
 _ZN9ZipWriter11HandleErrorEi@Base 0.0.20
 _ZN9ZipWriter13CompressBytesEPNS_8FileInfoEPKvm@Base 0.0.20
 _ZN9ZipWriter14PrepareDeflateEv@Base 0.0.20
 _ZN9ZipWriter15ErrorCodeStringEi@Base 0.0.20
 _ZN9ZipWriter17StartAlignedEntryEPKcmj@Base 0.0.20
 _ZN9ZipWriter18StartEntryWithTimeEPKcml@Base 0.0.20
 _ZN9ZipWriter20FlushCompressedBytesEPNS_8FileInfoE@Base 0.0.20
 _ZN9ZipWriter25StartAlignedEntryWithTimeEPKcmlj@Base 0.0.20
 _ZN9ZipWriter6FinishEv@Base 0.0.20
 _ZN9ZipWriterC1EOS_@Base 0.0.20
 _ZN9ZipWriterC1EP8_IO_FILE@Base 0.0.20
 _ZN9ZipWriterC2EOS_@Base 0.0.20
 _ZN9ZipWriterC2EP8_IO_FILE@Base 0.0.20
 _ZN9ZipWriteraSEOS_@Base 0.0.20
 _ZNSt6vectorIN9ZipWriter8FileInfoESaIS1_EE19_M_emplace_back_auxIJS1_EEEvDpOT_@Base 0.0.20
 _ZNSt6vectorIhSaIhEE17_M_default_appendEm@Base 0.0.20
 _ZTI10FileWriter@Base 0.0.20
 _ZTI12MemoryWriter@Base 0.0.20
 _ZTI21ZipArchiveStreamEntry@Base 0.0.20
 _ZTI31ZipArchiveStreamEntryCompressed@Base 0.0.20
 _ZTI33ZipArchiveStreamEntryUncompressed@Base 0.0.20
 _ZTI34ZipArchiveStreamEntryRawCompressed@Base 0.0.20
 _ZTI6Writer@Base 0.0.20
 _ZTS10FileWriter@Base 0.0.20
 _ZTS12MemoryWriter@Base 0.0.20
 _ZTS21ZipArchiveStreamEntry@Base 0.0.20
 _ZTS31ZipArchiveStreamEntryCompressed@Base 0.0.20
 _ZTS33ZipArchiveStreamEntryUncompressed@Base 0.0.20
 _ZTS34ZipArchiveStreamEntryRawCompressed@Base 0.0.20
 _ZTS6Writer@Base 0.0.20
 _ZTV10FileWriter@Base 0.0.20
 _ZTV12MemoryWriter@Base 0.0.20
 _ZTV21ZipArchiveStreamEntry@Base 0.0.20
 _ZTV31ZipArchiveStreamEntryCompressed@Base 0.0.20
 _ZTV33ZipArchiveStreamEntryUncompressed@Base 0.0.20
 _ZTV34ZipArchiveStreamEntryRawCompressed@Base 0.0.20
