libandroid-sysutils.so.0 libandroid-sysutils0 #MINVER#
 _ZN12NetlinkEvent14parseRtMessageEPK8nlmsghdr@Base 0.0.20
 _ZN12NetlinkEvent18parseIfAddrMessageEPK8nlmsghdr@Base 0.0.20
 _ZN12NetlinkEvent18parseIfInfoMessageEPK8nlmsghdr@Base 0.0.20
 _ZN12NetlinkEvent19freeSubsystemParamsEv@Base 0.0.20
 _ZN12NetlinkEvent20parseNfPacketMessageEP8nlmsghdr@Base 0.0.20
 _ZN12NetlinkEvent21parseNdUserOptMessageEPK8nlmsghdr@Base 0.0.20
 _ZN12NetlinkEvent22parseUlogPacketMessageEPK8nlmsghdr@Base 0.0.20
 _ZN12NetlinkEvent24parseAsciiNetlinkMessageEPci@Base 0.0.20
 _ZN12NetlinkEvent25parseBinaryNetlinkMessageEPci@Base 0.0.20
 _ZN12NetlinkEvent4dumpEv@Base 0.0.20
 _ZN12NetlinkEvent6decodeEPcii@Base 0.0.20
 _ZN12NetlinkEvent9findParamEPKc@Base 0.0.20
 _ZN12NetlinkEventC1Ev@Base 0.0.20
 _ZN12NetlinkEventC2Ev@Base 0.0.20
 _ZN12NetlinkEventD0Ev@Base 0.0.20
 _ZN12NetlinkEventD1Ev@Base 0.0.20
 _ZN12NetlinkEventD2Ev@Base 0.0.20
 _ZN12SocketClient13sendBinaryMsgEiPKvi@Base 0.0.20
 _ZN12SocketClient15sendDataLockedvEP5ioveci@Base 0.0.20
 _ZN12SocketClient4initEibb@Base 0.0.20
 _ZN12SocketClient6decRefEv@Base 0.0.20
 _ZN12SocketClient6incRefEv@Base 0.0.20
 _ZN12SocketClient7sendMsgEPKc@Base 0.0.20
 _ZN12SocketClient7sendMsgEiPKcb@Base 0.0.20
 _ZN12SocketClient7sendMsgEiPKcbb@Base 0.0.20
 _ZN12SocketClient8quoteArgEPKc@Base 0.0.20
 _ZN12SocketClient8sendCodeEi@Base 0.0.20
 _ZN12SocketClient8sendDataEPKvi@Base 0.0.20
 _ZN12SocketClient9sendDatavEP5ioveci@Base 0.0.20
 _ZN12SocketClientC1Eib@Base 0.0.20
 _ZN12SocketClientC1Eibb@Base 0.0.20
 _ZN12SocketClientC2Eib@Base 0.0.20
 _ZN12SocketClientC2Eibb@Base 0.0.20
 _ZN12SocketClientD0Ev@Base 0.0.20
 _ZN12SocketClientD1Ev@Base 0.0.20
 _ZN12SocketClientD2Ev@Base 0.0.20
 _ZN14ServiceManager4stopEPKc@Base 0.0.20
 _ZN14ServiceManager5startEPKc@Base 0.0.20
 _ZN14ServiceManager9isRunningEPKc@Base 0.0.20
 _ZN14ServiceManagerC1Ev@Base 0.0.20
 _ZN14ServiceManagerC2Ev@Base 0.0.20
 _ZN14ServiceManagerD0Ev@Base 0.0.20
 _ZN14ServiceManagerD1Ev@Base 0.0.20
 _ZN14ServiceManagerD2Ev@Base 0.0.20
 _ZN14SocketListener11runListenerEv@Base 0.0.20
 _ZN14SocketListener11threadStartEPv@Base 0.0.20
 _ZN14SocketListener12stopListenerEv@Base 0.0.20
 _ZN14SocketListener13sendBroadcastEiPKcb@Base 0.0.20
 _ZN14SocketListener13startListenerEi@Base 0.0.20
 _ZN14SocketListener13startListenerEv@Base 0.0.20
 _ZN14SocketListener15runOnEachSocketEP19SocketClientCommand@Base 0.0.20
 _ZN14SocketListener4initEPKcibb@Base 0.0.20
 _ZN14SocketListener7releaseEP12SocketClientb@Base 0.0.20
 _ZN14SocketListenerC1EPKcb@Base 0.0.20
 _ZN14SocketListenerC1EPKcbb@Base 0.0.20
 _ZN14SocketListenerC1Eib@Base 0.0.20
 _ZN14SocketListenerC2EPKcb@Base 0.0.20
 _ZN14SocketListenerC2EPKcbb@Base 0.0.20
 _ZN14SocketListenerC2Eib@Base 0.0.20
 _ZN14SocketListenerD0Ev@Base 0.0.20
 _ZN14SocketListenerD1Ev@Base 0.0.20
 _ZN14SocketListenerD2Ev@Base 0.0.20
 _ZN15NetlinkListener15onDataAvailableEP12SocketClient@Base 0.0.20
 _ZN15NetlinkListenerC1Ei@Base 0.0.20
 _ZN15NetlinkListenerC1Eii@Base 0.0.20
 _ZN15NetlinkListenerC2Ei@Base 0.0.20
 _ZN15NetlinkListenerC2Eii@Base 0.0.20
 _ZN16FrameworkCommand10runCommandEP12SocketClientiPPc@Base 0.0.20
 _ZN16FrameworkCommandC1EPKc@Base 0.0.20
 _ZN16FrameworkCommandC2EPKc@Base 0.0.20
 _ZN17FrameworkListener11registerCmdEP16FrameworkCommand@Base 0.0.20
 _ZN17FrameworkListener15dispatchCommandEP12SocketClientPc@Base 0.0.20
 _ZN17FrameworkListener15onDataAvailableEP12SocketClient@Base 0.0.20
 _ZN17FrameworkListener4initEPKcb@Base 0.0.20
 _ZN17FrameworkListenerC1EPKc@Base 0.0.20
 _ZN17FrameworkListenerC1EPKcb@Base 0.0.20
 _ZN17FrameworkListenerC1Ei@Base 0.0.20
 _ZN17FrameworkListenerC2EPKc@Base 0.0.20
 _ZN17FrameworkListenerC2EPKcb@Base 0.0.20
 _ZN17FrameworkListenerC2Ei@Base 0.0.20
 _ZN17FrameworkListenerD0Ev@Base 0.0.20
 _ZN17FrameworkListenerD1Ev@Base 0.0.20
 _ZN17FrameworkListenerD2Ev@Base 0.0.20
 _ZN7android8sysutils4ListIP12SocketClientED0Ev@Base 0.0.20
 _ZN7android8sysutils4ListIP12SocketClientED1Ev@Base 0.0.20
 _ZN7android8sysutils4ListIP12SocketClientED2Ev@Base 0.0.20
 _ZN7android8sysutils4ListIP16FrameworkCommandED0Ev@Base 0.0.20
 _ZN7android8sysutils4ListIP16FrameworkCommandED1Ev@Base 0.0.20
 _ZN7android8sysutils4ListIP16FrameworkCommandED2Ev@Base 0.0.20
 _ZTI12NetlinkEvent@Base 0.0.20
 _ZTI12SocketClient@Base 0.0.20
 _ZTI14ServiceManager@Base 0.0.20
 _ZTI14SocketListener@Base 0.0.20
 _ZTI15NetlinkListener@Base 0.0.20
 _ZTI16FrameworkCommand@Base 0.0.20
 _ZTI17FrameworkListener@Base 0.0.20
 _ZTIN7android8sysutils4ListIP12SocketClientEE@Base 0.0.20
 _ZTIN7android8sysutils4ListIP16FrameworkCommandEE@Base 0.0.20
 _ZTS12NetlinkEvent@Base 0.0.20
 _ZTS12SocketClient@Base 0.0.20
 _ZTS14ServiceManager@Base 0.0.20
 _ZTS14SocketListener@Base 0.0.20
 _ZTS15NetlinkListener@Base 0.0.20
 _ZTS16FrameworkCommand@Base 0.0.20
 _ZTS17FrameworkListener@Base 0.0.20
 _ZTSN7android8sysutils4ListIP12SocketClientEE@Base 0.0.20
 _ZTSN7android8sysutils4ListIP16FrameworkCommandEE@Base 0.0.20
 _ZTV12NetlinkEvent@Base 0.0.20
 _ZTV12SocketClient@Base 0.0.20
 _ZTV14ServiceManager@Base 0.0.20
 _ZTV14SocketListener@Base 0.0.20
 _ZTV15NetlinkListener@Base 0.0.20
 _ZTV16FrameworkCommand@Base 0.0.20
 _ZTV17FrameworkListener@Base 0.0.20
 _ZTVN7android8sysutils4ListIP12SocketClientEE@Base 0.0.20
 _ZTVN7android8sysutils4ListIP16FrameworkCommandEE@Base 0.0.20
