libandroid-base.so.0 libandroid-base0 #MINVER#
 _ZN12TemporaryDir4initERKNSt7__cxx1112basic_stringIcSt11char_traitsIcESaIcEEE@Base 0.0.20
 _ZN12TemporaryDirC1Ev@Base 0.0.20
 _ZN12TemporaryDirC2Ev@Base 0.0.20
 _ZN12TemporaryDirD1Ev@Base 0.0.20
 _ZN12TemporaryDirD2Ev@Base 0.0.20
 _ZN13TemporaryFile4initERKNSt7__cxx1112basic_stringIcSt11char_traitsIcESaIcEEE@Base 0.0.20
 _ZN13TemporaryFileC1Ev@Base 0.0.20
 _ZN13TemporaryFileC2Ev@Base 0.0.20
 _ZN13TemporaryFileD1Ev@Base 0.0.20
 _ZN13TemporaryFileD2Ev@Base 0.0.20
 _ZN7android4base10LogMessage6streamEv@Base 0.0.20
 _ZN7android4base10LogMessage7LogLineEPKcjNS0_5LogIdENS0_11LogSeverityES3_@Base 0.0.20
 _ZN7android4base10LogMessageC1EPKcjNS0_5LogIdENS0_11LogSeverityEi@Base 0.0.20
 _ZN7android4base10LogMessageC2EPKcjNS0_5LogIdENS0_11LogSeverityEi@Base 0.0.20
 _ZN7android4base10LogMessageD1Ev@Base 0.0.20
 _ZN7android4base10LogMessageD2Ev@Base 0.0.20
 _ZN7android4base10LogdLoggerC1ENS0_5LogIdE@Base 0.0.20
 _ZN7android4base10LogdLoggerC2ENS0_5LogIdE@Base 0.0.20
 _ZN7android4base10LogdLoggerclENS0_5LogIdENS0_11LogSeverityEPKcS5_jS5_@Base 0.0.20
 _ZN7android4base10StartsWithERKNSt7__cxx1112basic_stringIcSt11char_traitsIcESaIcEEEPKc@Base 0.0.20
 _ZN7android4base10WriteFullyEiPKvm@Base 0.0.20
 _ZN7android4base11InitLoggingEPPc@Base 0.0.20
 _ZN7android4base11InitLoggingEPPcOSt8functionIFvNS0_5LogIdENS0_11LogSeverityEPKcS7_jS7_EE@Base 0.0.20
 _ZN7android4base12StderrLoggerENS0_5LogIdENS0_11LogSeverityEPKcS4_jS4_@Base 0.0.20
 _ZN7android4base12StringPrintfB5cxx11EPKcz@Base 0.0.20
 _ZN7android4base13StringAppendFEPNSt7__cxx1112basic_stringIcSt11char_traitsIcESaIcEEEPKcz@Base 0.0.20
 _ZN7android4base13StringAppendVEPNSt7__cxx1112basic_stringIcSt11char_traitsIcESaIcEEEPKcP13__va_list_tag@Base 0.0.20
 _ZN7android4base14ReadFdToStringEiPNSt7__cxx1112basic_stringIcSt11char_traitsIcESaIcEEE@Base 0.0.20
 _ZN7android4base15ParseNetAddressERKNSt7__cxx1112basic_stringIcSt11char_traitsIcESaIcEEEPS6_PiS9_S9_@Base 0.0.20
 _ZN7android4base15WriteStringToFdERKNSt7__cxx1112basic_stringIcSt11char_traitsIcESaIcEEEi@Base 0.0.20
 _ZN7android4base16ReadFileToStringERKNSt7__cxx1112basic_stringIcSt11char_traitsIcESaIcEEEPS6_@Base 0.0.20
 _ZN7android4base17ScopedLogSeverityC1ENS0_11LogSeverityE@Base 0.0.20
 _ZN7android4base17ScopedLogSeverityC2ENS0_11LogSeverityE@Base 0.0.20
 _ZN7android4base17ScopedLogSeverityD1Ev@Base 0.0.20
 _ZN7android4base17ScopedLogSeverityD2Ev@Base 0.0.20
 _ZN7android4base17WriteStringToFileERKNSt7__cxx1112basic_stringIcSt11char_traitsIcESaIcEEES8_@Base 0.0.20
 _ZN7android4base17WriteStringToFileERKNSt7__cxx1112basic_stringIcSt11char_traitsIcESaIcEEES8_jjj@Base 0.0.20
 _ZN7android4base18RemoveFileIfExistsERKNSt7__cxx1112basic_stringIcSt11char_traitsIcESaIcEEEPS6_@Base 0.0.20
 _ZN7android4base21GetMinimumLogSeverityEv@Base 0.0.20
 _ZN7android4base23SystemErrorCodeToStringB5cxx11Ei@Base 0.0.20
 _ZN7android4base4JoinISt6vectorINSt7__cxx1112basic_stringIcSt11char_traitsIcESaIcEEESaIS8_EERKS8_EES8_RKT_T0_@Base 0.0.20
 _ZN7android4base4JoinISt6vectorINSt7__cxx1112basic_stringIcSt11char_traitsIcESaIcEEESaIS8_EEcEES8_RKT_T0_@Base 0.0.20
 _ZN7android4base4JoinISt6vectorIPKcSaIS4_EERKNSt7__cxx1112basic_stringIcSt11char_traitsIcESaIcEEEEESC_RKT_T0_@Base 0.0.20
 _ZN7android4base4JoinISt6vectorIPKcSaIS4_EEcEENSt7__cxx1112basic_stringIcSt11char_traitsIcESaIcEEERKT_T0_@Base 0.0.20
 _ZN7android4base4TrimERKNSt7__cxx1112basic_stringIcSt11char_traitsIcESaIcEEE@Base 0.0.20
 _ZN7android4base5SplitERKNSt7__cxx1112basic_stringIcSt11char_traitsIcESaIcEEES8_@Base 0.0.20
 _ZN7android4base8EndsWithERKNSt7__cxx1112basic_stringIcSt11char_traitsIcESaIcEEEPKc@Base 0.0.20
 _ZN7android4base9ReadFullyEiPvm@Base 0.0.20
 _ZN7android4base9SetLoggerEOSt8functionIFvNS0_5LogIdENS0_11LogSeverityEPKcS5_jS5_EE@Base 0.0.20
 _ZNSt14_Function_base13_Base_managerIN7android4base10LogdLoggerEE10_M_managerERSt9_Any_dataRKS5_St18_Manager_operation@Base 0.0.20
 _ZNSt17_Function_handlerIFvN7android4base5LogIdENS1_11LogSeverityEPKcS5_jS5_ENS1_10LogdLoggerEE9_M_invokeERKSt9_Any_dataOS2_OS3_OS5_SE_OjSE_@Base 0.0.20
 _ZNSt6vectorINSt7__cxx1112basic_stringIcSt11char_traitsIcESaIcEEESaIS5_EE19_M_emplace_back_auxIJS5_EEEvDpOT_@Base 0.0.20
 _ZNSt7__cxx1115basic_stringbufIcSt11char_traitsIcESaIcEED0Ev@Base 0.0.20
 _ZNSt7__cxx1115basic_stringbufIcSt11char_traitsIcESaIcEED1Ev@Base 0.0.20
 _ZNSt7__cxx1115basic_stringbufIcSt11char_traitsIcESaIcEED2Ev@Base 0.0.20
 _ZTIN7android4base10LogdLoggerE@Base 0.0.20
 _ZTSN7android4base10LogdLoggerE@Base 0.0.20
